SF:/Users/ekhodzitsky/Documents/personal/gigastt/crates/gigastt-core/src/error.rs
FN:19,_RNvMNtCs56NpsMUp9BL_12gigastt_core5errorNtB2_9ModelPath3new
FN:34,_RNvMNtCs56NpsMUp9BL_12gigastt_core5errorNtB2_9ModelPath6as_str
FN:49,_RNvMs_NtCs56NpsMUp9BL_12gigastt_core5errorNtB4_6Reason3new
FN:61,_RNvMs_NtCs56NpsMUp9BL_12gigastt_core5errorNtB4_6Reason6as_str
FN:169,_RNvNtNtCscGbmKBa7Tyy_12gigastt_core5error5testss_15test_display_io
FN:188,_RNvNtNtCscGbmKBa7Tyy_12gigastt_core5error5testss_16test_into_anyhow
FN:175,_RNvNtNtCscGbmKBa7Tyy_12gigastt_core5error5testss_18test_from_io_error
FN:182,_RNvNtNtCscGbmKBa7Tyy_12gigastt_core5error5testss_20test_error_source_io
FN:153,_RNvNtNtCscGbmKBa7Tyy_12gigastt_core5error5testss_22test_display_inference
FN:144,_RNvNtNtCscGbmKBa7Tyy_12gigastt_core5error5testss_23test_display_model_load
FN:138,_RNvNtNtCscGbmKBa7Tyy_12gigastt_core5error5testss_25test_reason_accepts_valid
FN:133,_RNvNtNtCscGbmKBa7Tyy_12gigastt_core5error5testss_25test_reason_rejects_empty
FN:161,_RNvNtNtCscGbmKBa7Tyy_12gigastt_core5error5testss_26test_display_invalid_audio
FN:127,_RNvNtNtCscGbmKBa7Tyy_12gigastt_core5error5testss_29test_model_path_accepts_valid
FN:122,_RNvNtNtCscGbmKBa7Tyy_12gigastt_core5error5testss_29test_model_path_rejects_empty
FN:190,_RNvNvNtNtCscGbmKBa7Tyy_12gigastt_core5error5testss_16test_into_anyhow14returns_anyhow
FN:19,_RNvMNtCscGbmKBa7Tyy_12gigastt_core5errorNtB2_9ModelPath3new
FN:34,_RNvMNtCscGbmKBa7Tyy_12gigastt_core5errorNtB2_9ModelPath6as_str
FN:49,_RNvMs_NtCscGbmKBa7Tyy_12gigastt_core5errorNtB4_6Reason3new
FN:61,_RNvMs_NtCscGbmKBa7Tyy_12gigastt_core5errorNtB4_6Reason6as_str
FNDA:0,_RNvMNtCs56NpsMUp9BL_12gigastt_core5errorNtB2_9ModelPath3new
FNDA:0,_RNvMNtCs56NpsMUp9BL_12gigastt_core5errorNtB2_9ModelPath6as_str
FNDA:0,_RNvMs_NtCs56NpsMUp9BL_12gigastt_core5errorNtB4_6Reason3new
FNDA:0,_RNvMs_NtCs56NpsMUp9BL_12gigastt_core5errorNtB4_6Reason6as_str
FNDA:1,_RNvNtNtCscGbmKBa7Tyy_12gigastt_core5error5testss_15test_display_io
FNDA:1,_RNvNtNtCscGbmKBa7Tyy_12gigastt_core5error5testss_16test_into_anyhow
FNDA:1,_RNvNtNtCscGbmKBa7Tyy_12gigastt_core5error5testss_18test_from_io_error
FNDA:1,_RNvNtNtCscGbmKBa7Tyy_12gigastt_core5error5testss_20test_error_source_io
FNDA:1,_RNvNtNtCscGbmKBa7Tyy_12gigastt_core5error5testss_22test_display_inference
FNDA:1,_RNvNtNtCscGbmKBa7Tyy_12gigastt_core5error5testss_23test_display_model_load
FNDA:1,_RNvNtNtCscGbmKBa7Tyy_12gigastt_core5error5testss_25test_reason_accepts_valid
FNDA:1,_RNvNtNtCscGbmKBa7Tyy_12gigastt_core5error5testss_25test_reason_rejects_empty
FNDA:1,_RNvNtNtCscGbmKBa7Tyy_12gigastt_core5error5testss_26test_display_invalid_audio
FNDA:1,_RNvNtNtCscGbmKBa7Tyy_12gigastt_core5error5testss_29test_model_path_accepts_valid
FNDA:1,_RNvNtNtCscGbmKBa7Tyy_12gigastt_core5error5testss_29test_model_path_rejects_empty
FNDA:1,_RNvNvNtNtCscGbmKBa7Tyy_12gigastt_core5error5testss_16test_into_anyhow14returns_anyhow
FNDA:2,_RNvMNtCscGbmKBa7Tyy_12gigastt_core5errorNtB2_9ModelPath3new
FNDA:1,_RNvMNtCscGbmKBa7Tyy_12gigastt_core5errorNtB2_9ModelPath6as_str
FNDA:2,_RNvMs_NtCscGbmKBa7Tyy_12gigastt_core5errorNtB4_6Reason3new
FNDA:1,_RNvMs_NtCscGbmKBa7Tyy_12gigastt_core5errorNtB4_6Reason6as_str
FNF:16
FNH:16
DA:19,2
DA:20,2
DA:21,1
DA:22,1
DA:23,1
DA:24,1
DA:25,1
DA:26,2
DA:34,1
DA:35,1
DA:36,1
DA:49,2
DA:50,2
DA:51,1
DA:52,1
DA:53,1
DA:54,1
DA:55,1
DA:56,2
DA:61,1
DA:62,1
DA:63,1
DA:122,1
DA:123,1
DA:124,1
DA:127,1
DA:128,1
DA:129,1
DA:130,1
DA:133,1
DA:134,1
DA:135,1
DA:138,1
DA:139,1
DA:140,1
DA:141,1
DA:144,1
DA:145,1
DA:146,1
DA:147,1
DA:148,1
DA:149,1
DA:150,1
DA:153,1
DA:154,1
DA:155,1
DA:156,1
DA:157,1
DA:158,1
DA:161,1
DA:162,1
DA:163,1
DA:164,1
DA:165,1
DA:166,1
DA:169,1
DA:170,1
DA:171,1
DA:172,1
DA:175,1
DA:176,1
DA:177,1
DA:178,1
DA:179,1
DA:182,1
DA:183,1
DA:184,1
DA:185,1
DA:188,1
DA:190,1
DA:191,1
DA:192,1
DA:193,1
DA:194,0
DA:195,1
DA:196,1
DA:197,1
BRF:0
BRH:0
LF:77
LH:76
end_of_record
SF:/Users/ekhodzitsky/Documents/personal/gigastt/crates/gigastt-core/src/inference/audio.rs
FN:35,_RNvMNtNtCs56NpsMUp9BL_12gigastt_core9inference5audioNtB2_10SampleRate3get
FN:25,_RNvMNtNtCs56NpsMUp9BL_12gigastt_core9inference5audioNtB2_10SampleRate3new
FN:58,_RNvMs_NtNtCs56NpsMUp9BL_12gigastt_core9inference5audioNtB4_16BytesMediaSource3new
FN:123,_RNvNtNtCs56NpsMUp9BL_12gigastt_core9inference5audio17decode_audio_file
FN:162,_RNvNtNtCs56NpsMUp9BL_12gigastt_core9inference5audio18decode_audio_bytes
FN:192,_RNvNtNtCs56NpsMUp9BL_12gigastt_core9inference5audio18decode_audio_inner
FN:383,_RNvNtNtCs56NpsMUp9BL_12gigastt_core9inference5audio19resample_with_cache
FN:538,_RNvNtNtCs56NpsMUp9BL_12gigastt_core9inference5audio20consume_audio_buffer
FN:516,_RNvNtNtCs56NpsMUp9BL_12gigastt_core9inference5audio20prepare_audio_buffer
FN:457,_RNvNtNtCs56NpsMUp9BL_12gigastt_core9inference5audio22parse_pcm16_with_carry
FN:184,_RNvNtNtCs56NpsMUp9BL_12gigastt_core9inference5audio25decode_audio_bytes_shared
FN:467,_RNvNtNtCs56NpsMUp9BL_12gigastt_core9inference5audio27parse_pcm16_with_carry_into
FN:316,_RNvNtNtCs56NpsMUp9BL_12gigastt_core9inference5audio8resample
FN:64,_RNvXs0_NtNtCs56NpsMUp9BL_12gigastt_core9inference5audioNtB5_16BytesMediaSourceNtNtCsg55jX0GwzBC_3std2io4Read4read
FN:79,_RNvXs1_NtNtCs56NpsMUp9BL_12gigastt_core9inference5audioNtB5_16BytesMediaSourceNtNtCsg55jX0GwzBC_3std2io4Seek4seek
FN:100,_RNvXs2_NtNtCs56NpsMUp9BL_12gigastt_core9inference5audioNtB5_16BytesMediaSourceNtNtCsiQ6Io2XfqB8_14symphonia_core2io11MediaSource11is_seekable
FN:104,_RNvXs2_NtNtCs56NpsMUp9BL_12gigastt_core9inference5audioNtB5_16BytesMediaSourceNtNtCsiQ6Io2XfqB8_14symphonia_core2io11MediaSource8byte_len
FN:125,_RNCNvNtNtCs56NpsMUp9BL_12gigastt_core9inference5audio17decode_audio_file0B7_
FN:131,_RNCNvNtNtCs56NpsMUp9BL_12gigastt_core9inference5audio17decode_audio_files_0B7_
FN:213,_RNCNvNtNtCs56NpsMUp9BL_12gigastt_core9inference5audio18decode_audio_inner0B7_
FN:219,_RNCNvNtNtCs56NpsMUp9BL_12gigastt_core9inference5audio18decode_audio_inners_0B7_
FN:428,_RNCNvNtNtCs56NpsMUp9BL_12gigastt_core9inference5audio19resample_with_cache0B7_
FN:445,_RNCNvNtNtCs56NpsMUp9BL_12gigastt_core9inference5audio19resample_with_caches0_0B7_
FN:448,_RNCNvNtNtCs56NpsMUp9BL_12gigastt_core9inference5audio19resample_with_caches1_0B7_
FN:443,_RNCNvNtNtCs56NpsMUp9BL_12gigastt_core9inference5audio19resample_with_caches_0B7_
FN:327,_RNCNvNtNtCs56NpsMUp9BL_12gigastt_core9inference5audio8resample0B7_
FN:353,_RNCNvNtNtCs56NpsMUp9BL_12gigastt_core9inference5audio8resamples0_0B7_
FN:355,_RNCNvNtNtCs56NpsMUp9BL_12gigastt_core9inference5audio8resamples1_0B7_
FN:358,_RNCNvNtNtCs56NpsMUp9BL_12gigastt_core9inference5audio8resamples2_0B7_
FN:346,_RNCNvNtNtCs56NpsMUp9BL_12gigastt_core9inference5audio8resamples_0B7_
FN:125,_RNCNvNtNtCscGbmKBa7Tyy_12gigastt_core9inference5audio17decode_audio_file0B7_
FN:131,_RNCNvNtNtCscGbmKBa7Tyy_12gigastt_core9inference5audio17decode_audio_files_0B7_
FN:428,_RNCNvNtNtCscGbmKBa7Tyy_12gigastt_core9inference5audio19resample_with_cache0B7_
FN:445,_RNCNvNtNtCscGbmKBa7Tyy_12gigastt_core9inference5audio19resample_with_caches0_0B7_
FN:448,_RNCNvNtNtCscGbmKBa7Tyy_12gigastt_core9inference5audio19resample_with_caches1_0B7_
FN:443,_RNCNvNtNtCscGbmKBa7Tyy_12gigastt_core9inference5audio19resample_with_caches_0B7_
FN:35,_RNvMNtNtCscGbmKBa7Tyy_12gigastt_core9inference5audioNtB2_10SampleRate3get
FN:25,_RNvMNtNtCscGbmKBa7Tyy_12gigastt_core9inference5audioNtB2_10SampleRate3new
FN:123,_RNvNtNtCscGbmKBa7Tyy_12gigastt_core9inference5audio17decode_audio_file
FN:383,_RNvNtNtCscGbmKBa7Tyy_12gigastt_core9inference5audio19resample_with_cache
FN:565,_RNCNvNtNtNtCscGbmKBa7Tyy_12gigastt_core9inference5audio5testss_29test_resample_upsample_length0B9_
FN:551,_RNCNvNtNtNtCscGbmKBa7Tyy_12gigastt_core9inference5audio5testss_31test_resample_downsample_length0B9_
FN:778,_RNvNtNtNtCscGbmKBa7Tyy_12gigastt_core9inference5audio5tests14make_wav_bytes
FN:593,_RNvNtNtNtCscGbmKBa7Tyy_12gigastt_core9inference5audio5testss_19test_resample_empty
FN:928,_RNvNtNtNtCscGbmKBa7Tyy_12gigastt_core9inference5audio5testss_22test_parse_pcm16_basic
FN:951,_RNvNtNtNtCscGbmKBa7Tyy_12gigastt_core9inference5audio5testss_22test_parse_pcm16_empty
FN:636,_RNvNtNtNtCscGbmKBa7Tyy_12gigastt_core9inference5audio5testss_23test_buffer_exact_frame
FN:692,_RNvNtNtNtCscGbmKBa7Tyy_12gigastt_core9inference5audio5testss_23test_buffer_multi_frame
FN:708,_RNvNtNtNtCscGbmKBa7Tyy_12gigastt_core9inference5audio5testss_23test_resample_nan_input
FN:614,_RNvNtNtNtCscGbmKBa7Tyy_12gigastt_core9inference5audio5testss_23test_resample_same_rate
FN:577,_RNvNtNtNtCscGbmKBa7Tyy_12gigastt_core9inference5audio5testss_26test_resample_preserves_dc
FN:847,_RNvNtNtNtCscGbmKBa7Tyy_12gigastt_core9inference5audio5testss_27bytes_media_source_seek_end
FN:820,_RNvNtNtNtCscGbmKBa7Tyy_12gigastt_core9inference5audio5testss_27test_decode_audio_bytes_wav
FN:834,_RNvNtNtNtCscGbmKBa7Tyy_12gigastt_core9inference5audio5testss_28bytes_media_source_read_full
FN:649,_RNvNtNtNtCscGbmKBa7Tyy_12gigastt_core9inference5audio5testss_28test_buffer_leftover_correct
FN:679,_RNvNtNtNtCscGbmKBa7Tyy_12gigastt_core9inference5audio5testss_28test_buffer_truncation_at_5s
FN:719,_RNvNtNtNtCscGbmKBa7Tyy_12gigastt_core9inference5audio5testss_28test_resample_infinity_input
FN:802,_RNvNtNtNtCscGbmKBa7Tyy_12gigastt_core9inference5audio5testss_29test_decode_audio_bytes_empty
FN:564,_RNvNtNtNtCscGbmKBa7Tyy_12gigastt_core9inference5audio5testss_29test_resample_upsample_length
FN:732,_RNvNtNtNtCscGbmKBa7Tyy_12gigastt_core9inference5audio5testss_30test_resample_mixed_nan_normal
FN:744,_RNvNtNtNtCscGbmKBa7Tyy_12gigastt_core9inference5audio5testss_31test_prepare_buffer_empty_input
FN:753,_RNvNtNtNtCscGbmKBa7Tyy_12gigastt_core9inference5audio5testss_31test_prepare_buffer_exactly_max
FN:550,_RNvNtNtNtCscGbmKBa7Tyy_12gigastt_core9inference5audio5testss_31test_resample_downsample_length
FN:911,_RNvNtNtNtCscGbmKBa7Tyy_12gigastt_core9inference5audio5testss_32decode_audio_shim_matches_shared
FN:765,_RNvNtNtNtCscGbmKBa7Tyy_12gigastt_core9inference5audio5testss_32test_prepare_buffer_one_over_max
FN:939,_RNvNtNtNtCscGbmKBa7Tyy_12gigastt_core9inference5audio5testss_33test_parse_pcm16_odd_length_carry
FN:959,_RNvNtNtNtCscGbmKBa7Tyy_12gigastt_core9inference5audio5testss_34test_decode_duration_cap_streaming
FN:900,_RNvNtNtNtCscGbmKBa7Tyy_12gigastt_core9inference5audio5testss_35bytes_media_source_byte_len_matches
FN:858,_RNvNtNtNtCscGbmKBa7Tyy_12gigastt_core9inference5audio5testss_35bytes_media_source_seek_past_end_ok
FN:662,_RNvNtNtNtCscGbmKBa7Tyy_12gigastt_core9inference5audio5testss_36test_buffer_accumulates_across_calls
FN:626,_RNvNtNtNtCscGbmKBa7Tyy_12gigastt_core9inference5audio5testss_36test_buffer_short_input_returns_none
FN:809,_RNvNtNtNtCscGbmKBa7Tyy_12gigastt_core9inference5audio5testss_36test_decode_audio_bytes_invalid_data
FN:599,_RNvNtNtNtCscGbmKBa7Tyy_12gigastt_core9inference5audio5testss_37test_resample_zero_rate_returns_empty
FN:882,_RNvNtNtNtCscGbmKBa7Tyy_12gigastt_core9inference5audio5testss_40bytes_media_source_partial_read_progress
FN:871,_RNvNtNtNtCscGbmKBa7Tyy_12gigastt_core9inference5audio5testss_40bytes_media_source_seek_before_start_err
FN:213,_RNCNvNtNtCscGbmKBa7Tyy_12gigastt_core9inference5audio18decode_audio_inner0B7_
FN:219,_RNCNvNtNtCscGbmKBa7Tyy_12gigastt_core9inference5audio18decode_audio_inners_0B7_
FN:327,_RNCNvNtNtCscGbmKBa7Tyy_12gigastt_core9inference5audio8resample0B7_
FN:353,_RNCNvNtNtCscGbmKBa7Tyy_12gigastt_core9inference5audio8resamples0_0B7_
FN:355,_RNCNvNtNtCscGbmKBa7Tyy_12gigastt_core9inference5audio8resamples1_0B7_
FN:358,_RNCNvNtNtCscGbmKBa7Tyy_12gigastt_core9inference5audio8resamples2_0B7_
FN:346,_RNCNvNtNtCscGbmKBa7Tyy_12gigastt_core9inference5audio8resamples_0B7_
FN:58,_RNvMs_NtNtCscGbmKBa7Tyy_12gigastt_core9inference5audioNtB4_16BytesMediaSource3new
FN:162,_RNvNtNtCscGbmKBa7Tyy_12gigastt_core9inference5audio18decode_audio_bytes
FN:192,_RNvNtNtCscGbmKBa7Tyy_12gigastt_core9inference5audio18decode_audio_inner
FN:538,_RNvNtNtCscGbmKBa7Tyy_12gigastt_core9inference5audio20consume_audio_buffer
FN:516,_RNvNtNtCscGbmKBa7Tyy_12gigastt_core9inference5audio20prepare_audio_buffer
FN:457,_RNvNtNtCscGbmKBa7Tyy_12gigastt_core9inference5audio22parse_pcm16_with_carry
FN:184,_RNvNtNtCscGbmKBa7Tyy_12gigastt_core9inference5audio25decode_audio_bytes_shared
FN:467,_RNvNtNtCscGbmKBa7Tyy_12gigastt_core9inference5audio27parse_pcm16_with_carry_into
FN:316,_RNvNtNtCscGbmKBa7Tyy_12gigastt_core9inference5audio8resample
FN:64,_RNvXs0_NtNtCscGbmKBa7Tyy_12gigastt_core9inference5audioNtB5_16BytesMediaSourceNtNtCsg55jX0GwzBC_3std2io4Read4read
FN:79,_RNvXs1_NtNtCscGbmKBa7Tyy_12gigastt_core9inference5audioNtB5_16BytesMediaSourceNtNtCsg55jX0GwzBC_3std2io4Seek4seek
FN:100,_RNvXs2_NtNtCscGbmKBa7Tyy_12gigastt_core9inference5audioNtB5_16BytesMediaSourceNtNtCsiQ6Io2XfqB8_14symphonia_core2io11MediaSource11is_seekable
FN:104,_RNvXs2_NtNtCscGbmKBa7Tyy_12gigastt_core9inference5audioNtB5_16BytesMediaSourceNtNtCsiQ6Io2XfqB8_14symphonia_core2io11MediaSource8byte_len
FNDA:0,_RNvMNtNtCs56NpsMUp9BL_12gigastt_core9inference5audioNtB2_10SampleRate3get
FNDA:0,_RNvMNtNtCs56NpsMUp9BL_12gigastt_core9inference5audioNtB2_10SampleRate3new
FNDA:0,_RNvMs_NtNtCs56NpsMUp9BL_12gigastt_core9inference5audioNtB4_16BytesMediaSource3new
FNDA:0,_RNvNtNtCs56NpsMUp9BL_12gigastt_core9inference5audio17decode_audio_file
FNDA:0,_RNvNtNtCs56NpsMUp9BL_12gigastt_core9inference5audio18decode_audio_bytes
FNDA:0,_RNvNtNtCs56NpsMUp9BL_12gigastt_core9inference5audio18decode_audio_inner
FNDA:0,_RNvNtNtCs56NpsMUp9BL_12gigastt_core9inference5audio19resample_with_cache
FNDA:0,_RNvNtNtCs56NpsMUp9BL_12gigastt_core9inference5audio20consume_audio_buffer
FNDA:0,_RNvNtNtCs56NpsMUp9BL_12gigastt_core9inference5audio20prepare_audio_buffer
FNDA:0,_RNvNtNtCs56NpsMUp9BL_12gigastt_core9inference5audio22parse_pcm16_with_carry
FNDA:0,_RNvNtNtCs56NpsMUp9BL_12gigastt_core9inference5audio25decode_audio_bytes_shared
FNDA:0,_RNvNtNtCs56NpsMUp9BL_12gigastt_core9inference5audio27parse_pcm16_with_carry_into
FNDA:0,_RNvNtNtCs56NpsMUp9BL_12gigastt_core9inference5audio8resample
FNDA:0,_RNvXs0_NtNtCs56NpsMUp9BL_12gigastt_core9inference5audioNtB5_16BytesMediaSourceNtNtCsg55jX0GwzBC_3std2io4Read4read
FNDA:0,_RNvXs1_NtNtCs56NpsMUp9BL_12gigastt_core9inference5audioNtB5_16BytesMediaSourceNtNtCsg55jX0GwzBC_3std2io4Seek4seek
FNDA:0,_RNvXs2_NtNtCs56NpsMUp9BL_12gigastt_core9inference5audioNtB5_16BytesMediaSourceNtNtCsiQ6Io2XfqB8_14symphonia_core2io11MediaSource11is_seekable
FNDA:0,_RNvXs2_NtNtCs56NpsMUp9BL_12gigastt_core9inference5audioNtB5_16BytesMediaSourceNtNtCsiQ6Io2XfqB8_14symphonia_core2io11MediaSource8byte_len
FNDA:0,_RNCNvNtNtCs56NpsMUp9BL_12gigastt_core9inference5audio17decode_audio_file0B7_
FNDA:0,_RNCNvNtNtCs56NpsMUp9BL_12gigastt_core9inference5audio17decode_audio_files_0B7_
FNDA:0,_RNCNvNtNtCs56NpsMUp9BL_12gigastt_core9inference5audio18decode_audio_inner0B7_
FNDA:0,_RNCNvNtNtCs56NpsMUp9BL_12gigastt_core9inference5audio18decode_audio_inners_0B7_
FNDA:0,_RNCNvNtNtCs56NpsMUp9BL_12gigastt_core9inference5audio19resample_with_cache0B7_
FNDA:0,_RNCNvNtNtCs56NpsMUp9BL_12gigastt_core9inference5audio19resample_with_caches0_0B7_
FNDA:0,_RNCNvNtNtCs56NpsMUp9BL_12gigastt_core9inference5audio19resample_with_caches1_0B7_
FNDA:0,_RNCNvNtNtCs56NpsMUp9BL_12gigastt_core9inference5audio19resample_with_caches_0B7_
FNDA:0,_RNCNvNtNtCs56NpsMUp9BL_12gigastt_core9inference5audio8resample0B7_
FNDA:0,_RNCNvNtNtCs56NpsMUp9BL_12gigastt_core9inference5audio8resamples0_0B7_
FNDA:0,_RNCNvNtNtCs56NpsMUp9BL_12gigastt_core9inference5audio8resamples1_0B7_
FNDA:0,_RNCNvNtNtCs56NpsMUp9BL_12gigastt_core9inference5audio8resamples2_0B7_
FNDA:0,_RNCNvNtNtCs56NpsMUp9BL_12gigastt_core9inference5audio8resamples_0B7_
FNDA:0,_RNCNvNtNtCscGbmKBa7Tyy_12gigastt_core9inference5audio17decode_audio_file0B7_
FNDA:0,_RNCNvNtNtCscGbmKBa7Tyy_12gigastt_core9inference5audio17decode_audio_files_0B7_
FNDA:0,_RNCNvNtNtCscGbmKBa7Tyy_12gigastt_core9inference5audio19resample_with_cache0B7_
FNDA:0,_RNCNvNtNtCscGbmKBa7Tyy_12gigastt_core9inference5audio19resample_with_caches0_0B7_
FNDA:0,_RNCNvNtNtCscGbmKBa7Tyy_12gigastt_core9inference5audio19resample_with_caches1_0B7_
FNDA:0,_RNCNvNtNtCscGbmKBa7Tyy_12gigastt_core9inference5audio19resample_with_caches_0B7_
FNDA:0,_RNvMNtNtCscGbmKBa7Tyy_12gigastt_core9inference5audioNtB2_10SampleRate3get
FNDA:0,_RNvMNtNtCscGbmKBa7Tyy_12gigastt_core9inference5audioNtB2_10SampleRate3new
FNDA:0,_RNvNtNtCscGbmKBa7Tyy_12gigastt_core9inference5audio17decode_audio_file
FNDA:0,_RNvNtNtCscGbmKBa7Tyy_12gigastt_core9inference5audio19resample_with_cache
FNDA:800,_RNCNvNtNtNtCscGbmKBa7Tyy_12gigastt_core9inference5audio5testss_29test_resample_upsample_length0B9_
FNDA:4800,_RNCNvNtNtNtCscGbmKBa7Tyy_12gigastt_core9inference5audio5testss_31test_resample_downsample_length0B9_
FNDA:3,_RNvNtNtNtCscGbmKBa7Tyy_12gigastt_core9inference5audio5tests14make_wav_bytes
FNDA:1,_RNvNtNtNtCscGbmKBa7Tyy_12gigastt_core9inference5audio5testss_19test_resample_empty
FNDA:1,_RNvNtNtNtCscGbmKBa7Tyy_12gigastt_core9inference5audio5testss_22test_parse_pcm16_basic
FNDA:1,_RNvNtNtNtCscGbmKBa7Tyy_12gigastt_core9inference5audio5testss_22test_parse_pcm16_empty
FNDA:1,_RNvNtNtNtCscGbmKBa7Tyy_12gigastt_core9inference5audio5testss_23test_buffer_exact_frame
FNDA:1,_RNvNtNtNtCscGbmKBa7Tyy_12gigastt_core9inference5audio5testss_23test_buffer_multi_frame
FNDA:1,_RNvNtNtNtCscGbmKBa7Tyy_12gigastt_core9inference5audio5testss_23test_resample_nan_input
FNDA:1,_RNvNtNtNtCscGbmKBa7Tyy_12gigastt_core9inference5audio5testss_23test_resample_same_rate
FNDA:1,_RNvNtNtNtCscGbmKBa7Tyy_12gigastt_core9inference5audio5testss_26test_resample_preserves_dc
FNDA:1,_RNvNtNtNtCscGbmKBa7Tyy_12gigastt_core9inference5audio5testss_27bytes_media_source_seek_end
FNDA:1,_RNvNtNtNtCscGbmKBa7Tyy_12gigastt_core9inference5audio5testss_27test_decode_audio_bytes_wav
FNDA:1,_RNvNtNtNtCscGbmKBa7Tyy_12gigastt_core9inference5audio5testss_28bytes_media_source_read_full
FNDA:1,_RNvNtNtNtCscGbmKBa7Tyy_12gigastt_core9inference5audio5testss_28test_buffer_leftover_correct
FNDA:1,_RNvNtNtNtCscGbmKBa7Tyy_12gigastt_core9inference5audio5testss_28test_buffer_truncation_at_5s
FNDA:1,_RNvNtNtNtCscGbmKBa7Tyy_12gigastt_core9inference5audio5testss_28test_resample_infinity_input
FNDA:1,_RNvNtNtNtCscGbmKBa7Tyy_12gigastt_core9inference5audio5testss_29test_decode_audio_bytes_empty
FNDA:1,_RNvNtNtNtCscGbmKBa7Tyy_12gigastt_core9inference5audio5testss_29test_resample_upsample_length
FNDA:1,_RNvNtNtNtCscGbmKBa7Tyy_12gigastt_core9inference5audio5testss_30test_resample_mixed_nan_normal
FNDA:1,_RNvNtNtNtCscGbmKBa7Tyy_12gigastt_core9inference5audio5testss_31test_prepare_buffer_empty_input
FNDA:1,_RNvNtNtNtCscGbmKBa7Tyy_12gigastt_core9inference5audio5testss_31test_prepare_buffer_exactly_max
FNDA:1,_RNvNtNtNtCscGbmKBa7Tyy_12gigastt_core9inference5audio5testss_31test_resample_downsample_length
FNDA:1,_RNvNtNtNtCscGbmKBa7Tyy_12gigastt_core9inference5audio5testss_32decode_audio_shim_matches_shared
FNDA:1,_RNvNtNtNtCscGbmKBa7Tyy_12gigastt_core9inference5audio5testss_32test_prepare_buffer_one_over_max
FNDA:1,_RNvNtNtNtCscGbmKBa7Tyy_12gigastt_core9inference5audio5testss_33test_parse_pcm16_odd_length_carry
FNDA:1,_RNvNtNtNtCscGbmKBa7Tyy_12gigastt_core9inference5audio5testss_34test_decode_duration_cap_streaming
FNDA:1,_RNvNtNtNtCscGbmKBa7Tyy_12gigastt_core9inference5audio5testss_35bytes_media_source_byte_len_matches
FNDA:1,_RNvNtNtNtCscGbmKBa7Tyy_12gigastt_core9inference5audio5testss_35bytes_media_source_seek_past_end_ok
FNDA:1,_RNvNtNtNtCscGbmKBa7Tyy_12gigastt_core9inference5audio5testss_36test_buffer_accumulates_across_calls
FNDA:1,_RNvNtNtNtCscGbmKBa7Tyy_12gigastt_core9inference5audio5testss_36test_buffer_short_input_returns_none
FNDA:1,_RNvNtNtNtCscGbmKBa7Tyy_12gigastt_core9inference5audio5testss_36test_decode_audio_bytes_invalid_data
FNDA:1,_RNvNtNtNtCscGbmKBa7Tyy_12gigastt_core9inference5audio5testss_37test_resample_zero_rate_returns_empty
FNDA:1,_RNvNtNtNtCscGbmKBa7Tyy_12gigastt_core9inference5audio5testss_40bytes_media_source_partial_read_progress
FNDA:1,_RNvNtNtNtCscGbmKBa7Tyy_12gigastt_core9inference5audio5testss_40bytes_media_source_seek_before_start_err
FNDA:4,_RNCNvNtNtCscGbmKBa7Tyy_12gigastt_core9inference5audio18decode_audio_inner0B7_
FNDA:4,_RNCNvNtNtCscGbmKBa7Tyy_12gigastt_core9inference5audio18decode_audio_inners_0B7_
FNDA:486760,_RNCNvNtNtCscGbmKBa7Tyy_12gigastt_core9inference5audio8resample0B7_
FNDA:0,_RNCNvNtNtCscGbmKBa7Tyy_12gigastt_core9inference5audio8resamples0_0B7_
FNDA:0,_RNCNvNtNtCscGbmKBa7Tyy_12gigastt_core9inference5audio8resamples1_0B7_
FNDA:0,_RNCNvNtNtCscGbmKBa7Tyy_12gigastt_core9inference5audio8resamples2_0B7_
FNDA:0,_RNCNvNtNtCscGbmKBa7Tyy_12gigastt_core9inference5audio8resamples_0B7_
FNDA:12,_RNvMs_NtNtCscGbmKBa7Tyy_12gigastt_core9inference5audioNtB4_16BytesMediaSource3new
FNDA:4,_RNvNtNtCscGbmKBa7Tyy_12gigastt_core9inference5audio18decode_audio_bytes
FNDA:6,_RNvNtNtCscGbmKBa7Tyy_12gigastt_core9inference5audio18decode_audio_inner
FNDA:7,_RNvNtNtCscGbmKBa7Tyy_12gigastt_core9inference5audio20consume_audio_buffer
FNDA:10,_RNvNtNtCscGbmKBa7Tyy_12gigastt_core9inference5audio20prepare_audio_buffer
FNDA:2720,_RNvNtNtCscGbmKBa7Tyy_12gigastt_core9inference5audio22parse_pcm16_with_carry
FNDA:6,_RNvNtNtCscGbmKBa7Tyy_12gigastt_core9inference5audio25decode_audio_bytes_shared
FNDA:2720,_RNvNtNtCscGbmKBa7Tyy_12gigastt_core9inference5audio27parse_pcm16_with_carry_into
FNDA:207,_RNvNtNtCscGbmKBa7Tyy_12gigastt_core9inference5audio8resample
FNDA:626,_RNvXs0_NtNtCscGbmKBa7Tyy_12gigastt_core9inference5audioNtB5_16BytesMediaSourceNtNtCsg55jX0GwzBC_3std2io4Read4read
FNDA:14,_RNvXs1_NtNtCscGbmKBa7Tyy_12gigastt_core9inference5audioNtB5_16BytesMediaSourceNtNtCsg55jX0GwzBC_3std2io4Seek4seek
FNDA:13,_RNvXs2_NtNtCscGbmKBa7Tyy_12gigastt_core9inference5audioNtB5_16BytesMediaSourceNtNtCsiQ6Io2XfqB8_14symphonia_core2io11MediaSource11is_seekable
FNDA:7,_RNvXs2_NtNtCscGbmKBa7Tyy_12gigastt_core9inference5audioNtB5_16BytesMediaSourceNtNtCsiQ6Io2XfqB8_14symphonia_core2io11MediaSource8byte_len
FNF:65
FNH:51
DA:25,0
DA:26,0
DA:27,0
DA:28,0
DA:29,0
DA:30,0
DA:35,0
DA:36,0
DA:37,0
DA:58,12
DA:59,12
DA:60,12
DA:64,626
DA:65,626
DA:66,626
DA:67,6
DA:68,620
DA:69,620
DA:70,620
DA:71,620
DA:72,620
DA:73,620
DA:74,620
DA:75,626
DA:79,14
DA:80,14
DA:83,14
DA:84,12
DA:85,1
DA:86,1
DA:88,14
DA:89,1
DA:90,1
DA:91,1
DA:92,1
DA:93,13
DA:94,13
DA:95,13
DA:96,14
DA:100,13
DA:101,13
DA:102,13
DA:104,7
DA:105,7
DA:106,7
DA:123,0
DA:124,0
DA:125,0
DA:126,0
DA:128,0
DA:129,0
DA:130,0
DA:131,0
DA:132,0
DA:133,0
DA:134,0
DA:136,0
DA:138,0
DA:139,0
DA:140,0
DA:141,0
DA:144,0
DA:145,0
DA:162,4
DA:163,4
DA:164,4
DA:184,6
DA:185,6
DA:186,6
DA:187,6
DA:188,6
DA:189,6
DA:192,6
DA:193,6
DA:194,6
DA:195,6
DA:196,6
DA:197,6
DA:198,6
DA:199,6
DA:200,6
DA:201,6
DA:202,6
DA:204,6
DA:206,4
DA:207,4
DA:208,4
DA:209,4
DA:210,4
DA:211,4
DA:212,4
DA:213,4
DA:214,4
DA:215,4
DA:216,4
DA:217,4
DA:218,4
DA:219,4
DA:220,4
DA:225,4
DA:227,4
DA:229,4
DA:230,4
DA:231,4
DA:233,4
DA:234,4
DA:235,3
DA:237,1
DA:241,4
DA:244,8379
DA:245,8376
DA:246,3
DA:247,0
DA:250,8376
DA:251,0
DA:252,8376
DA:254,8376
DA:255,8376
DA:256,8376
DA:257,8376
DA:260,8376
DA:261,0
DA:262,0
DA:263,0
DA:264,0
DA:265,0
DA:266,0
DA:267,0
DA:268,0
DA:270,8376
DA:271,8376
DA:272,8376
DA:273,8376
DA:274,8376
DA:280,8376
DA:281,1
DA:282,1
DA:286,8375
DA:289,3
DA:290,3
DA:292,0
DA:298,3
DA:299,0
DA:300,0
DA:301,0
DA:302,3
DA:304,3
DA:305,6
DA:316,207
DA:317,207
DA:318,3
DA:319,204
DA:320,204
DA:321,1
DA:322,203
DA:325,203
DA:326,203
DA:327,486760
DA:328,203
DA:335,203
DA:336,203
DA:337,203
DA:338,203
DA:339,203
DA:340,203
DA:341,203
DA:343,203
DA:344,203
DA:345,203
DA:346,203
DA:348,203
DA:349,203
DA:350,203
DA:352,203
DA:353,203
DA:354,203
DA:355,203
DA:356,203
DA:357,203
DA:358,203
DA:360,203
DA:361,203
DA:362,207
DA:383,0
DA:384,0
DA:385,0
DA:386,0
DA:387,0
DA:388,0
DA:389,0
DA:392,0
DA:393,0
DA:394,0
DA:395,0
DA:396,0
DA:397,0
DA:398,0
DA:399,0
DA:402,0
DA:403,0
DA:404,0
DA:405,0
DA:408,0
DA:409,0
DA:411,0
DA:412,0
DA:413,0
DA:416,0
DA:420,0
DA:421,0
DA:422,0
DA:423,0
DA:424,0
DA:425,0
DA:426,0
DA:427,0
DA:428,0
DA:429,0
DA:430,0
DA:432,0
DA:433,0
DA:434,0
DA:436,0
DA:437,0
DA:438,0
DA:441,0
DA:442,0
DA:443,0
DA:444,0
DA:445,0
DA:446,0
DA:447,0
DA:448,0
DA:449,0
DA:450,0
DA:457,2720
DA:458,2720
DA:459,2720
DA:460,2720
DA:461,2720
DA:467,2720
DA:468,2720
DA:469,2720
DA:470,2720
DA:472,2720
DA:473,1983
DA:474,1983
DA:475,1983
DA:476,1242
DA:477,1242
DA:478,1242
DA:479,0
DA:480,0
DA:482,741
DA:483,494042
DA:484,493421
DA:485,492059
DA:487,1362
DA:488,1362
DA:491,492059
DA:494,737
DA:495,184770
DA:496,184770
DA:497,184770
DA:499,2720
DA:516,10
DA:517,10
DA:519,10
DA:520,2
DA:521,2
DA:522,2
DA:523,2
DA:524,8
DA:526,10
DA:527,10
DA:528,10
DA:529,7
DA:530,7
DA:531,7
DA:533,3
DA:535,10
DA:538,7
DA:539,7
DA:540,7
DA:541,7
DA:550,1
DA:551,4800
DA:552,1
DA:555,1
DA:556,1
DA:557,1
DA:559,0
DA:561,1
DA:564,1
DA:565,800
DA:566,1
DA:568,1
DA:569,1
DA:570,1
DA:572,0
DA:574,1
DA:577,1
DA:580,1
DA:581,1
DA:582,1
DA:583,1
DA:584,1281
DA:585,1281
DA:586,1281
DA:590,1
DA:593,1
DA:594,1
DA:595,1
DA:596,1
DA:599,1
DA:600,1
DA:601,1
DA:602,1
DA:603,1
DA:604,1
DA:606,1
DA:607,1
DA:608,1
DA:609,1
DA:611,1
DA:614,1
DA:615,1
DA:616,1
DA:617,1
DA:618,4
DA:619,4
DA:621,1
DA:626,1
DA:628,1
DA:629,1
DA:630,1
DA:631,1
DA:632,1
DA:633,1
DA:636,1
DA:638,1
DA:639,1
DA:640,1
DA:641,1
DA:642,1
DA:643,1
DA:644,1
DA:645,1
DA:646,1
DA:649,1
DA:651,1
DA:652,1
DA:653,1
DA:654,1
DA:655,1
DA:656,1
DA:657,1
DA:658,1
DA:659,1
DA:662,1
DA:663,1
DA:665,1
DA:666,1
DA:667,1
DA:670,1
DA:671,1
DA:672,1
DA:673,1
DA:674,1
DA:675,1
DA:676,1
DA:679,1
DA:681,1
DA:682,1
DA:683,1
DA:685,1
DA:686,1
DA:687,1
DA:688,1
DA:689,1
DA:692,1
DA:694,1
DA:695,1
DA:696,1
DA:697,1
DA:699,1
DA:700,1
DA:701,1
DA:702,1
DA:703,1
DA:708,1
DA:709,1
DA:710,1
DA:712,1
DA:713,332
DA:714,332
DA:716,1
DA:719,1
DA:720,1
DA:721,1
DA:722,1
DA:723,166
DA:724,166
DA:725,166
DA:729,1
DA:732,1
DA:733,1
DA:734,1
DA:735,1
DA:736,1
DA:737,1
DA:738,159
DA:739,159
DA:741,1
DA:744,1
DA:745,1
DA:746,1
DA:748,1
DA:749,1
DA:750,1
DA:753,1
DA:755,1
DA:756,1
DA:757,1
DA:758,1
DA:759,1
DA:760,1
DA:761,1
DA:762,1
DA:765,1
DA:767,1
DA:768,1
DA:769,1
DA:770,1
DA:771,1
DA:772,1
DA:773,1
DA:774,1
DA:778,3
DA:779,3
DA:780,3
DA:781,3
DA:782,3
DA:783,3
DA:784,3
DA:785,3
DA:786,3
DA:787,3
DA:788,3
DA:789,3
DA:790,3
DA:791,3
DA:792,3
DA:793,3
DA:794,3
DA:795,11552000
DA:796,11552000
DA:797,11552000
DA:798,3
DA:799,3
DA:802,1
DA:804,1
DA:805,1
DA:806,1
DA:809,1
DA:811,1
DA:812,1
DA:813,1
DA:814,1
DA:817,1
DA:820,1
DA:821,1
DA:822,1
DA:823,1
DA:824,1
DA:826,1
DA:827,1
DA:834,1
DA:835,1
DA:836,1
DA:837,1
DA:838,1
DA:839,1
DA:840,1
DA:842,1
DA:843,1
DA:844,1
DA:847,1
DA:848,1
DA:849,1
DA:850,1
DA:851,1
DA:852,1
DA:854,1
DA:855,1
DA:858,1
DA:859,1
DA:860,1
DA:864,1
DA:865,1
DA:866,1
DA:867,1
DA:868,1
DA:871,1
DA:872,1
DA:873,1
DA:874,1
DA:875,1
DA:877,1
DA:878,1
DA:879,1
DA:882,1
DA:885,1
DA:886,1
DA:887,1
DA:888,1
DA:890,5
DA:891,5
DA:892,1
DA:893,4
DA:894,4
DA:896,1
DA:897,1
DA:900,1
DA:902,1
DA:903,1
DA:904,1
DA:905,1
DA:906,1
DA:911,1
DA:915,1
DA:916,1
DA:917,1
DA:918,1
DA:919,1
DA:920,16000
DA:921,16000
DA:923,1
DA:928,1
DA:929,1
DA:930,1
DA:931,1
DA:932,1
DA:933,1
DA:934,1
DA:935,1
DA:936,1
DA:939,1
DA:940,1
DA:941,1
DA:942,1
DA:943,1
DA:945,1
DA:946,1
DA:947,1
DA:948,1
DA:951,1
DA:952,1
DA:953,1
DA:954,1
DA:955,1
DA:956,1
DA:959,1
DA:969,1
DA:970,1
DA:971,1
DA:972,1
DA:973,1
DA:974,1
DA:975,1
DA:976,1
DA:979,1
BRF:0
BRH:0
LF:587
LH:480
end_of_record
SF:/Users/ekhodzitsky/Documents/personal/gigastt/crates/gigastt-core/src/inference/decode.rs
FN:86,_RNvNtNtCs56NpsMUp9BL_12gigastt_core9inference6decode11run_decoder
FN:147,_RNvNtNtCs56NpsMUp9BL_12gigastt_core9inference6decode13greedy_decode
FN:117,_RNvNtNtCs56NpsMUp9BL_12gigastt_core9inference6decode17run_joiner_single
FN:32,_RNvNtNtCs56NpsMUp9BL_12gigastt_core9inference6decode21extract_encoder_frame
FN:58,_RNvNtNtCs56NpsMUp9BL_12gigastt_core9inference6decode22argmax_with_confidence
FN:46,_RNvNtNtCs56NpsMUp9BL_12gigastt_core9inference6decode6argmax
FN:63,_RNCNvNtNtCs56NpsMUp9BL_12gigastt_core9inference6decode22argmax_with_confidence0B7_
FN:50,_RNCNvNtNtCs56NpsMUp9BL_12gigastt_core9inference6decode6argmax0B7_
FN:63,_RNCNvNtNtCscGbmKBa7Tyy_12gigastt_core9inference6decode22argmax_with_confidence0B7_
FN:86,_RNvNtNtCscGbmKBa7Tyy_12gigastt_core9inference6decode11run_decoder
FN:147,_RNvNtNtCscGbmKBa7Tyy_12gigastt_core9inference6decode13greedy_decode
FN:117,_RNvNtNtCscGbmKBa7Tyy_12gigastt_core9inference6decode17run_joiner_single
FN:58,_RNvNtNtCscGbmKBa7Tyy_12gigastt_core9inference6decode22argmax_with_confidence
FN:306,_RNvNtNtNtCscGbmKBa7Tyy_12gigastt_core9inference6decode5testss_24test_argmax_clear_winner
FN:319,_RNvNtNtNtCscGbmKBa7Tyy_12gigastt_core9inference6decode5testss_26test_argmax_single_element
FN:325,_RNvNtNtNtCscGbmKBa7Tyy_12gigastt_core9inference6decode5testss_27test_argmax_negative_values
FN:312,_RNvNtNtNtCscGbmKBa7Tyy_12gigastt_core9inference6decode5testss_28test_argmax_tie_returns_last
FN:337,_RNvNtNtNtCscGbmKBa7Tyy_12gigastt_core9inference6decode5testss_29test_argmax_blank_id_selected
FN:331,_RNvNtNtNtCscGbmKBa7Tyy_12gigastt_core9inference6decode5testss_31test_argmax_empty_returns_blank
FN:288,_RNvNtNtNtCscGbmKBa7Tyy_12gigastt_core9inference6decode5testss_31test_extract_encoder_frame_last
FN:279,_RNvNtNtNtCscGbmKBa7Tyy_12gigastt_core9inference6decode5testss_32test_extract_encoder_frame_first
FN:296,_RNvNtNtNtCscGbmKBa7Tyy_12gigastt_core9inference6decode5testss_33test_extract_encoder_frame_middle
FN:32,_RNvNtNtCscGbmKBa7Tyy_12gigastt_core9inference6decode21extract_encoder_frame
FN:46,_RNvNtNtCscGbmKBa7Tyy_12gigastt_core9inference6decode6argmax
FN:50,_RNCNvNtNtCscGbmKBa7Tyy_12gigastt_core9inference6decode6argmax0B7_
FNDA:0,_RNvNtNtCs56NpsMUp9BL_12gigastt_core9inference6decode11run_decoder
FNDA:0,_RNvNtNtCs56NpsMUp9BL_12gigastt_core9inference6decode13greedy_decode
FNDA:0,_RNvNtNtCs56NpsMUp9BL_12gigastt_core9inference6decode17run_joiner_single
FNDA:0,_RNvNtNtCs56NpsMUp9BL_12gigastt_core9inference6decode21extract_encoder_frame
FNDA:0,_RNvNtNtCs56NpsMUp9BL_12gigastt_core9inference6decode22argmax_with_confidence
FNDA:0,_RNvNtNtCs56NpsMUp9BL_12gigastt_core9inference6decode6argmax
FNDA:0,_RNCNvNtNtCs56NpsMUp9BL_12gigastt_core9inference6decode22argmax_with_confidence0B7_
FNDA:0,_RNCNvNtNtCs56NpsMUp9BL_12gigastt_core9inference6decode6argmax0B7_
FNDA:0,_RNCNvNtNtCscGbmKBa7Tyy_12gigastt_core9inference6decode22argmax_with_confidence0B7_
FNDA:0,_RNvNtNtCscGbmKBa7Tyy_12gigastt_core9inference6decode11run_decoder
FNDA:0,_RNvNtNtCscGbmKBa7Tyy_12gigastt_core9inference6decode13greedy_decode
FNDA:0,_RNvNtNtCscGbmKBa7Tyy_12gigastt_core9inference6decode17run_joiner_single
FNDA:0,_RNvNtNtCscGbmKBa7Tyy_12gigastt_core9inference6decode22argmax_with_confidence
FNDA:1,_RNvNtNtNtCscGbmKBa7Tyy_12gigastt_core9inference6decode5testss_24test_argmax_clear_winner
FNDA:1,_RNvNtNtNtCscGbmKBa7Tyy_12gigastt_core9inference6decode5testss_26test_argmax_single_element
FNDA:1,_RNvNtNtNtCscGbmKBa7Tyy_12gigastt_core9inference6decode5testss_27test_argmax_negative_values
FNDA:1,_RNvNtNtNtCscGbmKBa7Tyy_12gigastt_core9inference6decode5testss_28test_argmax_tie_returns_last
FNDA:1,_RNvNtNtNtCscGbmKBa7Tyy_12gigastt_core9inference6decode5testss_29test_argmax_blank_id_selected
FNDA:1,_RNvNtNtNtCscGbmKBa7Tyy_12gigastt_core9inference6decode5testss_31test_argmax_empty_returns_blank
FNDA:1,_RNvNtNtNtCscGbmKBa7Tyy_12gigastt_core9inference6decode5testss_31test_extract_encoder_frame_last
FNDA:1,_RNvNtNtNtCscGbmKBa7Tyy_12gigastt_core9inference6decode5testss_32test_extract_encoder_frame_first
FNDA:1,_RNvNtNtNtCscGbmKBa7Tyy_12gigastt_core9inference6decode5testss_33test_extract_encoder_frame_middle
FNDA:3,_RNvNtNtCscGbmKBa7Tyy_12gigastt_core9inference6decode21extract_encoder_frame
FNDA:6,_RNvNtNtCscGbmKBa7Tyy_12gigastt_core9inference6decode6argmax
FNDA:9,_RNCNvNtNtCscGbmKBa7Tyy_12gigastt_core9inference6decode6argmax0B7_
FNF:17
FNH:12
DA:32,3
DA:33,3
DA:34,3
DA:35,3
DA:36,3
DA:37,3
DA:38,6
DA:39,6
DA:40,6
DA:41,3
DA:46,6
DA:47,6
DA:48,6
DA:49,6
DA:50,9
DA:51,6
DA:52,6
DA:53,6
DA:58,0
DA:59,0
DA:60,0
DA:61,0
DA:62,0
DA:63,0
DA:64,0
DA:65,0
DA:66,0
DA:67,0
DA:86,0
DA:87,0
DA:88,0
DA:89,0
DA:90,0
DA:92,0
DA:93,0
DA:94,0
DA:96,0
DA:97,0
DA:98,0
DA:99,0
DA:100,0
DA:101,0
DA:102,0
DA:103,0
DA:104,0
DA:106,0
DA:107,0
DA:108,0
DA:109,0
DA:110,0
DA:111,0
DA:117,0
DA:118,0
DA:119,0
DA:120,0
DA:121,0
DA:122,0
DA:123,0
DA:124,0
DA:126,0
DA:127,0
DA:128,0
DA:130,0
DA:131,0
DA:132,0
DA:134,0
DA:135,0
DA:136,0
DA:137,0
DA:147,0
DA:148,0
DA:149,0
DA:150,0
DA:151,0
DA:152,0
DA:153,0
DA:154,0
DA:155,0
DA:156,0
DA:159,0
DA:161,0
DA:162,0
DA:163,0
DA:164,0
DA:168,0
DA:169,0
DA:171,0
DA:172,0
DA:174,0
DA:175,0
DA:178,0
DA:179,0
DA:181,0
DA:188,0
DA:189,0
DA:190,0
DA:191,0
DA:193,0
DA:197,0
DA:198,0
DA:199,0
DA:200,0
DA:201,0
DA:202,0
DA:206,0
DA:207,0
DA:210,0
DA:213,0
DA:215,0
DA:216,0
DA:217,0
DA:218,0
DA:219,0
DA:220,0
DA:221,0
DA:223,0
DA:227,0
DA:228,0
DA:229,0
DA:230,0
DA:231,0
DA:232,0
DA:233,0
DA:234,0
DA:237,0
DA:238,0
DA:239,0
DA:240,0
DA:241,0
DA:243,0
DA:244,0
DA:247,0
DA:248,0
DA:249,0
DA:250,0
DA:251,0
DA:252,0
DA:253,0
DA:254,0
DA:255,0
DA:259,0
DA:266,0
DA:267,0
DA:268,0
DA:269,0
DA:270,0
DA:279,1
DA:281,1
DA:282,1
DA:283,1
DA:284,1
DA:285,1
DA:288,1
DA:289,1
DA:290,1
DA:291,1
DA:292,1
DA:293,1
DA:296,1
DA:297,1
DA:298,1
DA:299,1
DA:300,1
DA:301,1
DA:306,1
DA:307,1
DA:308,1
DA:309,1
DA:312,1
DA:314,1
DA:315,1
DA:316,1
DA:319,1
DA:320,1
DA:321,1
DA:322,1
DA:325,1
DA:326,1
DA:327,1
DA:328,1
DA:331,1
DA:332,1
DA:333,1
DA:334,1
DA:337,1
DA:339,1
DA:340,1
DA:341,1
BRF:0
BRH:0
LF:190
LH:61
end_of_record
SF:/Users/ekhodzitsky/Documents/personal/gigastt/crates/gigastt-core/src/inference/features.rs
FN:119,_RNvMNtNtCs56NpsMUp9BL_12gigastt_core9inference8featuresNtB2_14MelSpectrogram20compute_with_buffers
FN:54,_RNvMNtNtCs56NpsMUp9BL_12gigastt_core9inference8featuresNtB2_14MelSpectrogram21create_mel_filterbank
FN:17,_RNvMNtNtCs56NpsMUp9BL_12gigastt_core9inference8featuresNtB2_14MelSpectrogram3new
FN:105,_RNvMNtNtCs56NpsMUp9BL_12gigastt_core9inference8featuresNtB2_14MelSpectrogram7compute
FN:46,_RNvMNtNtCs56NpsMUp9BL_12gigastt_core9inference8featuresNtB2_14MelSpectrogram9hz_to_mel
FN:50,_RNvMNtNtCs56NpsMUp9BL_12gigastt_core9inference8featuresNtB2_14MelSpectrogram9mel_to_hz
FN:68,_RNCNvMNtNtCs56NpsMUp9BL_12gigastt_core9inference8featuresNtB4_14MelSpectrogram21create_mel_filterbank0B8_
FN:76,_RNCNvMNtNtCs56NpsMUp9BL_12gigastt_core9inference8featuresNtB4_14MelSpectrogram21create_mel_filterbanks0_0B8_
FN:71,_RNCNvMNtNtCs56NpsMUp9BL_12gigastt_core9inference8featuresNtB4_14MelSpectrogram21create_mel_filterbanks_0B8_
FN:27,_RNCNvMNtNtCs56NpsMUp9BL_12gigastt_core9inference8featuresNtB4_14MelSpectrogram3new0B8_
FN:188,_RNvNtNtNtCscGbmKBa7Tyy_12gigastt_core9inference8features5testss_12test_silence
FN:221,_RNvNtNtNtCscGbmKBa7Tyy_12gigastt_core9inference8features5testss_14test_sine_wave
FN:212,_RNvNtNtNtCscGbmKBa7Tyy_12gigastt_core9inference8features5testss_14test_too_short
FN:202,_RNvNtNtNtCscGbmKBa7Tyy_12gigastt_core9inference8features5testss_17test_output_shape
FN:225,_RNCNvNtNtNtCscGbmKBa7Tyy_12gigastt_core9inference8features5testss_14test_sine_wave0B9_
FN:233,_RNCNvNtNtNtCscGbmKBa7Tyy_12gigastt_core9inference8features5testss_14test_sine_waves_0B9_
FN:119,_RNvMNtNtCscGbmKBa7Tyy_12gigastt_core9inference8featuresNtB2_14MelSpectrogram20compute_with_buffers
FN:54,_RNvMNtNtCscGbmKBa7Tyy_12gigastt_core9inference8featuresNtB2_14MelSpectrogram21create_mel_filterbank
FN:17,_RNvMNtNtCscGbmKBa7Tyy_12gigastt_core9inference8featuresNtB2_14MelSpectrogram3new
FN:105,_RNvMNtNtCscGbmKBa7Tyy_12gigastt_core9inference8featuresNtB2_14MelSpectrogram7compute
FN:46,_RNvMNtNtCscGbmKBa7Tyy_12gigastt_core9inference8featuresNtB2_14MelSpectrogram9hz_to_mel
FN:50,_RNvMNtNtCscGbmKBa7Tyy_12gigastt_core9inference8featuresNtB2_14MelSpectrogram9mel_to_hz
FN:68,_RNCNvMNtNtCscGbmKBa7Tyy_12gigastt_core9inference8featuresNtB4_14MelSpectrogram21create_mel_filterbank0B8_
FN:76,_RNCNvMNtNtCscGbmKBa7Tyy_12gigastt_core9inference8featuresNtB4_14MelSpectrogram21create_mel_filterbanks0_0B8_
FN:71,_RNCNvMNtNtCscGbmKBa7Tyy_12gigastt_core9inference8featuresNtB4_14MelSpectrogram21create_mel_filterbanks_0B8_
FN:27,_RNCNvMNtNtCscGbmKBa7Tyy_12gigastt_core9inference8featuresNtB4_14MelSpectrogram3new0B8_
FNDA:0,_RNvMNtNtCs56NpsMUp9BL_12gigastt_core9inference8featuresNtB2_14MelSpectrogram20compute_with_buffers
FNDA:0,_RNvMNtNtCs56NpsMUp9BL_12gigastt_core9inference8featuresNtB2_14MelSpectrogram21create_mel_filterbank
FNDA:0,_RNvMNtNtCs56NpsMUp9BL_12gigastt_core9inference8featuresNtB2_14MelSpectrogram3new
FNDA:0,_RNvMNtNtCs56NpsMUp9BL_12gigastt_core9inference8featuresNtB2_14MelSpectrogram7compute
FNDA:0,_RNvMNtNtCs56NpsMUp9BL_12gigastt_core9inference8featuresNtB2_14MelSpectrogram9hz_to_mel
FNDA:0,_RNvMNtNtCs56NpsMUp9BL_12gigastt_core9inference8featuresNtB2_14MelSpectrogram9mel_to_hz
FNDA:0,_RNCNvMNtNtCs56NpsMUp9BL_12gigastt_core9inference8featuresNtB4_14MelSpectrogram21create_mel_filterbank0B8_
FNDA:0,_RNCNvMNtNtCs56NpsMUp9BL_12gigastt_core9inference8featuresNtB4_14MelSpectrogram21create_mel_filterbanks0_0B8_
FNDA:0,_RNCNvMNtNtCs56NpsMUp9BL_12gigastt_core9inference8featuresNtB4_14MelSpectrogram21create_mel_filterbanks_0B8_
FNDA:0,_RNCNvMNtNtCs56NpsMUp9BL_12gigastt_core9inference8featuresNtB4_14MelSpectrogram3new0B8_
FNDA:1,_RNvNtNtNtCscGbmKBa7Tyy_12gigastt_core9inference8features5testss_12test_silence
FNDA:1,_RNvNtNtNtCscGbmKBa7Tyy_12gigastt_core9inference8features5testss_14test_sine_wave
FNDA:1,_RNvNtNtNtCscGbmKBa7Tyy_12gigastt_core9inference8features5testss_14test_too_short
FNDA:1,_RNvNtNtNtCscGbmKBa7Tyy_12gigastt_core9inference8features5testss_17test_output_shape
FNDA:16000,_RNCNvNtNtNtCscGbmKBa7Tyy_12gigastt_core9inference8features5testss_14test_sine_wave0B9_
FNDA:6336,_RNCNvNtNtNtCscGbmKBa7Tyy_12gigastt_core9inference8features5testss_14test_sine_waves_0B9_
FNDA:5,_RNvMNtNtCscGbmKBa7Tyy_12gigastt_core9inference8featuresNtB2_14MelSpectrogram20compute_with_buffers
FNDA:6,_RNvMNtNtCscGbmKBa7Tyy_12gigastt_core9inference8featuresNtB2_14MelSpectrogram21create_mel_filterbank
FNDA:6,_RNvMNtNtCscGbmKBa7Tyy_12gigastt_core9inference8featuresNtB2_14MelSpectrogram3new
FNDA:5,_RNvMNtNtCscGbmKBa7Tyy_12gigastt_core9inference8featuresNtB2_14MelSpectrogram7compute
FNDA:12,_RNvMNtNtCscGbmKBa7Tyy_12gigastt_core9inference8featuresNtB2_14MelSpectrogram9hz_to_mel
FNDA:396,_RNvMNtNtCscGbmKBa7Tyy_12gigastt_core9inference8featuresNtB2_14MelSpectrogram9mel_to_hz
FNDA:396,_RNCNvMNtNtCscGbmKBa7Tyy_12gigastt_core9inference8featuresNtB4_14MelSpectrogram21create_mel_filterbank0B8_
FNDA:396,_RNCNvMNtNtCscGbmKBa7Tyy_12gigastt_core9inference8featuresNtB4_14MelSpectrogram21create_mel_filterbanks0_0B8_
FNDA:396,_RNCNvMNtNtCscGbmKBa7Tyy_12gigastt_core9inference8featuresNtB4_14MelSpectrogram21create_mel_filterbanks_0B8_
FNDA:1920,_RNCNvMNtNtCscGbmKBa7Tyy_12gigastt_core9inference8featuresNtB4_14MelSpectrogram3new0B8_
FNF:16
FNH:16
DA:17,6
DA:18,6
DA:19,6
DA:20,6
DA:21,6
DA:22,6
DA:23,6
DA:26,6
DA:27,1920
DA:28,6
DA:31,6
DA:34,6
DA:35,6
DA:37,6
DA:38,6
DA:39,6
DA:40,6
DA:41,6
DA:42,6
DA:43,6
DA:44,6
DA:46,12
DA:47,12
DA:48,12
DA:50,396
DA:51,396
DA:52,396
DA:54,6
DA:55,6
DA:56,6
DA:57,6
DA:58,6
DA:59,6
DA:60,6
DA:61,6
DA:63,6
DA:64,6
DA:67,6
DA:68,396
DA:69,6
DA:71,396
DA:74,6
DA:75,6
DA:76,396
DA:77,6
DA:79,6
DA:81,384
DA:82,384
DA:83,384
DA:84,384
DA:86,384
DA:87,61824
DA:88,61824
DA:89,61824
DA:90,924
DA:91,60900
DA:92,960
DA:94,59940
DA:96,61824
DA:100,6
DA:101,6
DA:105,5
DA:106,5
DA:107,5
DA:108,5
DA:109,5
DA:110,5
DA:111,5
DA:112,5
DA:113,5
DA:119,5
DA:120,5
DA:121,5
DA:122,5
DA:123,5
DA:124,5
DA:125,5
DA:126,5
DA:129,5
DA:130,5
DA:131,2
DA:132,2
DA:133,3
DA:134,3
DA:136,3
DA:139,3
DA:140,0
DA:141,3
DA:142,3
DA:143,0
DA:144,3
DA:146,217
DA:147,217
DA:150,69440
DA:151,69440
DA:152,69440
DA:154,0
DA:156,69440
DA:160,217
DA:163,34937
DA:164,34937
DA:165,34937
DA:168,13888
DA:169,13888
DA:170,13888
DA:171,2235968
DA:172,2235968
DA:173,2235968
DA:175,13888
DA:179,3
DA:180,5
DA:188,1
DA:189,1
DA:190,1
DA:191,1
DA:192,1
DA:193,1
DA:195,1
DA:196,6336
DA:197,6336
DA:199,1
DA:202,1
DA:203,1
DA:204,1
DA:205,1
DA:207,1
DA:208,1
DA:209,1
DA:212,1
DA:213,1
DA:214,1
DA:215,1
DA:216,1
DA:217,1
DA:218,1
DA:221,1
DA:222,1
DA:224,1
DA:225,16000
DA:226,1
DA:227,1
DA:228,1
DA:230,1
DA:231,1
DA:232,1
DA:233,6336
DA:234,1
DA:235,1
DA:236,1
DA:239,1
BRF:0
BRH:0
LF:156
LH:153
end_of_record
SF:/Users/ekhodzitsky/Documents/personal/gigastt/crates/gigastt-core/src/inference/mod.rs
FN:174,_RNCNvMs1_NtCs56NpsMUp9BL_12gigastt_core9inferenceINtB7_4PoolNtB7_14SessionTripletE8checkout0Csbd9nAVVXtRC_7gigastt
FN:343,_RNCNvMs3_NtCs56NpsMUp9BL_12gigastt_core9inferenceINtB7_9PoolGuardNtB7_14SessionTripletE10into_owned0Csbd9nAVVXtRC_7gigastt
FN:405,_RNCNvXs8_NtCs56NpsMUp9BL_12gigastt_core9inferenceINtB7_16OwnedReservationNtB7_14SessionTripletENtNtNtCsl8K0bEFm1U0_4core3ops5deref8DerefMut9deref_mut0Csbd9nAVVXtRC_7gigastt
FN:251,_RNvMs1_NtCs56NpsMUp9BL_12gigastt_core9inferenceINtB5_4PoolNtB5_14SessionTripletE5closeCsbd9nAVVXtRC_7gigastt
FN:261,_RNvMs1_NtCs56NpsMUp9BL_12gigastt_core9inferenceINtB5_4PoolNtB5_14SessionTripletE5totalCsbd9nAVVXtRC_7gigastt
FN:272,_RNvMs1_NtCs56NpsMUp9BL_12gigastt_core9inferenceINtB5_4PoolNtB5_14SessionTripletE7waitersCsbd9nAVVXtRC_7gigastt
FN:174,_RNvMs1_NtCs56NpsMUp9BL_12gigastt_core9inferenceINtB5_4PoolNtB5_14SessionTripletE8checkoutCsbd9nAVVXtRC_7gigastt
FN:266,_RNvMs1_NtCs56NpsMUp9BL_12gigastt_core9inferenceINtB5_4PoolNtB5_14SessionTripletE9availableCsbd9nAVVXtRC_7gigastt
FN:279,_RNvMs2_NtCs56NpsMUp9BL_12gigastt_core9inferenceINtB5_9PoolInnerNtB5_14SessionTripletE7checkinCsbd9nAVVXtRC_7gigastt
FN:339,_RNvMs3_NtCs56NpsMUp9BL_12gigastt_core9inferenceINtB5_9PoolGuardNtB5_14SessionTripletE10into_ownedCsbd9nAVVXtRC_7gigastt
FN:327,_RNvMs3_NtCs56NpsMUp9BL_12gigastt_core9inferenceINtB5_9PoolGuardNtB5_14SessionTripletE3newCsbd9nAVVXtRC_7gigastt
FN:402,_RNvXs8_NtCs56NpsMUp9BL_12gigastt_core9inferenceINtB5_16OwnedReservationNtB5_14SessionTripletENtNtNtCsl8K0bEFm1U0_4core3ops5deref8DerefMut9deref_mutCsbd9nAVVXtRC_7gigastt
FN:371,_RNvXs6_NtCs56NpsMUp9BL_12gigastt_core9inferenceINtB5_9PoolGuardNtB5_14SessionTripletENtNtNtCsl8K0bEFm1U0_4core3ops4drop4Drop4dropCsbd9nAVVXtRC_7gigastt
FN:420,_RNvXsa_NtCs56NpsMUp9BL_12gigastt_core9inferenceINtB5_16OwnedReservationNtB5_14SessionTripletENtNtNtCsl8K0bEFm1U0_4core3ops4drop4Drop4dropCsbd9nAVVXtRC_7gigastt
FN:174,_RNCNvMs1_NtCs56NpsMUp9BL_12gigastt_core9inferenceINtB7_4PoolpE8checkout0B9_
FN:343,_RNCNvMs3_NtCs56NpsMUp9BL_12gigastt_core9inferenceINtB7_9PoolGuardpE10into_owned0B9_
FN:358,_RNCNvXININtCs56NpsMUp9BL_12gigastt_core9inferences4_0pEINtB7_9PoolGuardpENtNtNtCsl8K0bEFm1U0_4core3ops5deref5Deref5deref0B9_
FN:366,_RNCNvXININtCs56NpsMUp9BL_12gigastt_core9inferences5_0pEINtB7_9PoolGuardpENtNtNtCsl8K0bEFm1U0_4core3ops5deref8DerefMut9deref_mut0B9_
FN:397,_RNCNvXININtCs56NpsMUp9BL_12gigastt_core9inferences7_0pEINtB7_16OwnedReservationpENtNtNtCsl8K0bEFm1U0_4core3ops5deref5Deref5deref0B9_
FN:405,_RNCNvXININtCs56NpsMUp9BL_12gigastt_core9inferences8_0pEINtB7_16OwnedReservationpENtNtNtCsl8K0bEFm1U0_4core3ops5deref8DerefMut9deref_mut0B9_
FN:213,_RNvMs1_NtCs56NpsMUp9BL_12gigastt_core9inferenceINtB5_4PoolpE17checkout_blockingB7_
FN:251,_RNvMs1_NtCs56NpsMUp9BL_12gigastt_core9inferenceINtB5_4PoolpE5closeB7_
FN:261,_RNvMs1_NtCs56NpsMUp9BL_12gigastt_core9inferenceINtB5_4PoolpE5totalB7_
FN:272,_RNvMs1_NtCs56NpsMUp9BL_12gigastt_core9inferenceINtB5_4PoolpE7waitersB7_
FN:174,_RNvMs1_NtCs56NpsMUp9BL_12gigastt_core9inferenceINtB5_4PoolpE8checkoutB7_
FN:266,_RNvMs1_NtCs56NpsMUp9BL_12gigastt_core9inferenceINtB5_4PoolpE9availableB7_
FN:279,_RNvMs2_NtCs56NpsMUp9BL_12gigastt_core9inferenceINtB5_9PoolInnerpE7checkinB7_
FN:339,_RNvMs3_NtCs56NpsMUp9BL_12gigastt_core9inferenceINtB5_9PoolGuardpE10into_ownedB7_
FN:327,_RNvMs3_NtCs56NpsMUp9BL_12gigastt_core9inferenceINtB5_9PoolGuardpE3newB7_
FN:412,_RNvMs9_NtCs56NpsMUp9BL_12gigastt_core9inferenceINtB5_16OwnedReservationpE7checkinB7_
FN:355,_RNvXININtCs56NpsMUp9BL_12gigastt_core9inferences4_0pEINtB5_9PoolGuardpENtNtNtCsl8K0bEFm1U0_4core3ops5deref5Deref5derefB7_
FN:363,_RNvXININtCs56NpsMUp9BL_12gigastt_core9inferences5_0pEINtB5_9PoolGuardpENtNtNtCsl8K0bEFm1U0_4core3ops5deref8DerefMut9deref_mutB7_
FN:371,_RNvXININtCs56NpsMUp9BL_12gigastt_core9inferences6_0pEINtB5_9PoolGuardpENtNtNtCsl8K0bEFm1U0_4core3ops4drop4Drop4dropB7_
FN:394,_RNvXININtCs56NpsMUp9BL_12gigastt_core9inferences7_0pEINtB5_16OwnedReservationpENtNtNtCsl8K0bEFm1U0_4core3ops5deref5Deref5derefB7_
FN:402,_RNvXININtCs56NpsMUp9BL_12gigastt_core9inferences8_0pEINtB5_16OwnedReservationpENtNtNtCsl8K0bEFm1U0_4core3ops5deref8DerefMut9deref_mutB7_
FN:420,_RNvXININtCs56NpsMUp9BL_12gigastt_core9inferencesa_0pEINtB5_16OwnedReservationpENtNtNtCsl8K0bEFm1U0_4core3ops4drop4Drop4dropB7_
FN:73,_RINvNtCs56NpsMUp9BL_12gigastt_core9inference7ort_errINtNtCseRMXi1nj7qc_3ort5error5ErrorNtNtNtBT_7session7builder14SessionBuilderEEB4_
FN:73,_RINvNtCs56NpsMUp9BL_12gigastt_core9inference7ort_errNtNtCseRMXi1nj7qc_3ort5error5ErrorEB4_
FN:848,_RNCNCNCNCNvMsg_NtCs56NpsMUp9BL_12gigastt_core9inferenceNtBd_6Engine10load_inner0000Bf_
FN:860,_RNCNCNCNCNvMsg_NtCs56NpsMUp9BL_12gigastt_core9inferenceNtBd_6Engine10load_inner000s_0Bf_
FN:847,_RNCNCNCNvMsg_NtCs56NpsMUp9BL_12gigastt_core9inferenceNtBb_6Engine10load_inner000Bd_
FN:845,_RNCNCNvMsg_NtCs56NpsMUp9BL_12gigastt_core9inferenceNtB9_6Engine10load_inner00Bb_
FN:866,_RNCNCNvMsg_NtCs56NpsMUp9BL_12gigastt_core9inferenceNtB9_6Engine10load_inner0s_0Bb_
FN:843,_RNCNvMsg_NtCs56NpsMUp9BL_12gigastt_core9inferenceNtB7_6Engine10load_inner0B9_
FN:780,_RNCNvMsg_NtCs56NpsMUp9BL_12gigastt_core9inferenceNtB7_6Engine13load_sessions0B9_
FN:1043,_RNCNvMsg_NtCs56NpsMUp9BL_12gigastt_core9inferenceNtB7_6Engine13process_chunk0B9_
FN:1107,_RNCNvMsg_NtCs56NpsMUp9BL_12gigastt_core9inferenceNtB7_6Engine15transcribe_file0B9_
FN:1162,_RNCNvMsg_NtCs56NpsMUp9BL_12gigastt_core9inferenceNtB7_6Engine18transcribe_samples0B9_
FN:1191,_RNCNvMsg_NtCs56NpsMUp9BL_12gigastt_core9inferenceNtB7_6Engine18transcribe_sampless0_0B9_
FN:1177,_RNCNvMsg_NtCs56NpsMUp9BL_12gigastt_core9inferenceNtB7_6Engine18transcribe_sampless_0B9_
FN:680,_RNCNvMsg_NtCs56NpsMUp9BL_12gigastt_core9inferenceNtB7_6Engine19load_with_pool_size0B9_
FN:1140,_RNCNvMsg_NtCs56NpsMUp9BL_12gigastt_core9inferenceNtB7_6Engine23transcribe_bytes_shared0B9_
FN:158,_RNvMs1_NtCs56NpsMUp9BL_12gigastt_core9inferenceINtB5_4PoolNtB5_14SessionTripletE3newB7_
FN:445,_RNvMsb_NtCs56NpsMUp9BL_12gigastt_core9inferenceNtB5_12DecoderState3new
FN:535,_RNvMsd_NtCs56NpsMUp9BL_12gigastt_core9inferenceNtB5_16FeatureExtractor11compute_mel
FN:530,_RNvMsd_NtCs56NpsMUp9BL_12gigastt_core9inferenceNtB5_16FeatureExtractor14prepare_buffer
FN:523,_RNvMsd_NtCs56NpsMUp9BL_12gigastt_core9inferenceNtB5_16FeatureExtractor3new
FN:547,_RNvMsd_NtCs56NpsMUp9BL_12gigastt_core9inferenceNtB5_16FeatureExtractor7compute
FN:570,_RNvMsf_NtCs56NpsMUp9BL_12gigastt_core9inferenceNtB5_19TranscriptAssembler3new
FN:578,_RNvMsf_NtCs56NpsMUp9BL_12gigastt_core9inferenceNtB5_19TranscriptAssembler6append
FN:599,_RNvMsf_NtCs56NpsMUp9BL_12gigastt_core9inferenceNtB5_19TranscriptAssembler7partial
FN:589,_RNvMsf_NtCs56NpsMUp9BL_12gigastt_core9inferenceNtB5_19TranscriptAssembler8finalize
FN:609,_RNvMsf_NtCs56NpsMUp9BL_12gigastt_core9inferenceNtB5_19TranscriptAssembler8is_empty
FN:825,_RNvMsg_NtCs56NpsMUp9BL_12gigastt_core9inferenceNtB5_6Engine10load_inner
FN:653,_RNvMsg_NtCs56NpsMUp9BL_12gigastt_core9inferenceNtB5_6Engine10vocab_size
FN:1084,_RNvMsg_NtCs56NpsMUp9BL_12gigastt_core9inferenceNtB5_6Engine11flush_state
FN:931,_RNvMsg_NtCs56NpsMUp9BL_12gigastt_core9inferenceNtB5_6Engine12create_state
FN:686,_RNvMsg_NtCs56NpsMUp9BL_12gigastt_core9inferenceNtB5_6Engine13load_sessions
FN:987,_RNvMsg_NtCs56NpsMUp9BL_12gigastt_core9inferenceNtB5_6Engine13process_chunk
FN:1202,_RNvMsg_NtCs56NpsMUp9BL_12gigastt_core9inferenceNtB5_6Engine13run_inference
FN:1267,_RNvMsg_NtCs56NpsMUp9BL_12gigastt_core9inferenceNtB5_6Engine15tokens_to_words
FN:1100,_RNvMsg_NtCs56NpsMUp9BL_12gigastt_core9inferenceNtB5_6Engine15transcribe_file
FN:1117,_RNvMsg_NtCs56NpsMUp9BL_12gigastt_core9inferenceNtB5_6Engine16transcribe_bytes
FN:1148,_RNvMsg_NtCs56NpsMUp9BL_12gigastt_core9inferenceNtB5_6Engine18transcribe_samples
FN:920,_RNvMsg_NtCs56NpsMUp9BL_12gigastt_core9inferenceNtB5_6Engine19has_speaker_encoder
FN:671,_RNvMsg_NtCs56NpsMUp9BL_12gigastt_core9inferenceNtB5_6Engine19load_with_pool_size
FN:1133,_RNvMsg_NtCs56NpsMUp9BL_12gigastt_core9inferenceNtB5_6Engine23transcribe_bytes_shared
FN:666,_RNvMsg_NtCs56NpsMUp9BL_12gigastt_core9inferenceNtB5_6Engine4load
FN:646,_RNvMsg_NtCs56NpsMUp9BL_12gigastt_core9inferenceNtB5_6Engine7is_int8
FN:1367,_RNvMsh_NtCs56NpsMUp9BL_12gigastt_core9inferenceNtB5_17TranscriptSegment11empty_final
FN:77,_RNvNtCs56NpsMUp9BL_12gigastt_core9inference13now_timestamp
FN:42,_RNvXNtCs56NpsMUp9BL_12gigastt_core9inferenceNtB2_15SharedExtractorNtNtCsf2bSCHOBZc7_9polyvoice9embedding18EmbeddingExtractor13embedding_dim
FN:38,_RNvXNtCs56NpsMUp9BL_12gigastt_core9inferenceNtB2_15SharedExtractorNtNtCsf2bSCHOBZc7_9polyvoice9embedding18EmbeddingExtractor7extract
FN:118,_RNvXs_NtCs56NpsMUp9BL_12gigastt_core9inferenceNtB4_9PoolErrorNtNtCsl8K0bEFm1U0_4core3fmt7Display3fmt
FN:516,_RNvXsc_NtCs56NpsMUp9BL_12gigastt_core9inferenceNtB5_16FeatureExtractorNtNtCsl8K0bEFm1U0_4core7default7Default7default
FN:563,_RNvXse_NtCs56NpsMUp9BL_12gigastt_core9inferenceNtB5_19TranscriptAssemblerNtNtCsl8K0bEFm1U0_4core7default7Default7default
FN:174,_RNCNvMs1_NtCs56NpsMUp9BL_12gigastt_core9inferenceINtB7_4PoolNtB7_14SessionTripletE8checkout0Csk023ZLJrxN2_7gigastt
FN:343,_RNCNvMs3_NtCs56NpsMUp9BL_12gigastt_core9inferenceINtB7_9PoolGuardNtB7_14SessionTripletE10into_owned0Csk023ZLJrxN2_7gigastt
FN:405,_RNCNvXs8_NtCs56NpsMUp9BL_12gigastt_core9inferenceINtB7_16OwnedReservationNtB7_14SessionTripletENtNtNtCsl8K0bEFm1U0_4core3ops5deref8DerefMut9deref_mut0Csk023ZLJrxN2_7gigastt
FN:213,_RNvMs1_NtCs56NpsMUp9BL_12gigastt_core9inferenceINtB5_4PoolNtB5_14SessionTripletE17checkout_blockingCsk023ZLJrxN2_7gigastt
FN:251,_RNvMs1_NtCs56NpsMUp9BL_12gigastt_core9inferenceINtB5_4PoolNtB5_14SessionTripletE5closeCsk023ZLJrxN2_7gigastt
FN:261,_RNvMs1_NtCs56NpsMUp9BL_12gigastt_core9inferenceINtB5_4PoolNtB5_14SessionTripletE5totalCsk023ZLJrxN2_7gigastt
FN:272,_RNvMs1_NtCs56NpsMUp9BL_12gigastt_core9inferenceINtB5_4PoolNtB5_14SessionTripletE7waitersCsk023ZLJrxN2_7gigastt
FN:174,_RNvMs1_NtCs56NpsMUp9BL_12gigastt_core9inferenceINtB5_4PoolNtB5_14SessionTripletE8checkoutCsk023ZLJrxN2_7gigastt
FN:266,_RNvMs1_NtCs56NpsMUp9BL_12gigastt_core9inferenceINtB5_4PoolNtB5_14SessionTripletE9availableCsk023ZLJrxN2_7gigastt
FN:279,_RNvMs2_NtCs56NpsMUp9BL_12gigastt_core9inferenceINtB5_9PoolInnerNtB5_14SessionTripletE7checkinCsk023ZLJrxN2_7gigastt
FN:339,_RNvMs3_NtCs56NpsMUp9BL_12gigastt_core9inferenceINtB5_9PoolGuardNtB5_14SessionTripletE10into_ownedCsk023ZLJrxN2_7gigastt
FN:327,_RNvMs3_NtCs56NpsMUp9BL_12gigastt_core9inferenceINtB5_9PoolGuardNtB5_14SessionTripletE3newCsk023ZLJrxN2_7gigastt
FN:402,_RNvXs8_NtCs56NpsMUp9BL_12gigastt_core9inferenceINtB5_16OwnedReservationNtB5_14SessionTripletENtNtNtCsl8K0bEFm1U0_4core3ops5deref8DerefMut9deref_mutCsk023ZLJrxN2_7gigastt
FN:371,_RNvXs6_NtCs56NpsMUp9BL_12gigastt_core9inferenceINtB5_9PoolGuardNtB5_14SessionTripletENtNtNtCsl8K0bEFm1U0_4core3ops4drop4Drop4dropCsk023ZLJrxN2_7gigastt
FN:420,_RNvXsa_NtCs56NpsMUp9BL_12gigastt_core9inferenceINtB5_16OwnedReservationNtB5_14SessionTripletENtNtNtCsl8K0bEFm1U0_4core3ops4drop4Drop4dropCsk023ZLJrxN2_7gigastt
FN:1043,_RNCNvMsg_NtCscGbmKBa7Tyy_12gigastt_core9inferenceNtB7_6Engine13process_chunk0B9_
FN:1107,_RNCNvMsg_NtCscGbmKBa7Tyy_12gigastt_core9inferenceNtB7_6Engine15transcribe_file0B9_
FN:1162,_RNCNvMsg_NtCscGbmKBa7Tyy_12gigastt_core9inferenceNtB7_6Engine18transcribe_samples0B9_
FN:1191,_RNCNvMsg_NtCscGbmKBa7Tyy_12gigastt_core9inferenceNtB7_6Engine18transcribe_sampless0_0B9_
FN:1177,_RNCNvMsg_NtCscGbmKBa7Tyy_12gigastt_core9inferenceNtB7_6Engine18transcribe_sampless_0B9_
FN:1140,_RNCNvMsg_NtCscGbmKBa7Tyy_12gigastt_core9inferenceNtB7_6Engine23transcribe_bytes_shared0B9_
FN:366,_RNCNvXININtCscGbmKBa7Tyy_12gigastt_core9inferences5_0pEINtB7_9PoolGuardpENtNtNtCsl8K0bEFm1U0_4core3ops5deref8DerefMut9deref_mut0B9_
FN:261,_RNvMs1_NtCscGbmKBa7Tyy_12gigastt_core9inferenceINtB5_4PoolpE5totalB7_
FN:535,_RNvMsd_NtCscGbmKBa7Tyy_12gigastt_core9inferenceNtB5_16FeatureExtractor11compute_mel
FN:530,_RNvMsd_NtCscGbmKBa7Tyy_12gigastt_core9inferenceNtB5_16FeatureExtractor14prepare_buffer
FN:653,_RNvMsg_NtCscGbmKBa7Tyy_12gigastt_core9inferenceNtB5_6Engine10vocab_size
FN:1084,_RNvMsg_NtCscGbmKBa7Tyy_12gigastt_core9inferenceNtB5_6Engine11flush_state
FN:931,_RNvMsg_NtCscGbmKBa7Tyy_12gigastt_core9inferenceNtB5_6Engine12create_state
FN:987,_RNvMsg_NtCscGbmKBa7Tyy_12gigastt_core9inferenceNtB5_6Engine13process_chunk
FN:1202,_RNvMsg_NtCscGbmKBa7Tyy_12gigastt_core9inferenceNtB5_6Engine13run_inference
FN:1267,_RNvMsg_NtCscGbmKBa7Tyy_12gigastt_core9inferenceNtB5_6Engine15tokens_to_words
FN:1100,_RNvMsg_NtCscGbmKBa7Tyy_12gigastt_core9inferenceNtB5_6Engine15transcribe_file
FN:1117,_RNvMsg_NtCscGbmKBa7Tyy_12gigastt_core9inferenceNtB5_6Engine16transcribe_bytes
FN:1148,_RNvMsg_NtCscGbmKBa7Tyy_12gigastt_core9inferenceNtB5_6Engine18transcribe_samples
FN:920,_RNvMsg_NtCscGbmKBa7Tyy_12gigastt_core9inferenceNtB5_6Engine19has_speaker_encoder
FN:1133,_RNvMsg_NtCscGbmKBa7Tyy_12gigastt_core9inferenceNtB5_6Engine23transcribe_bytes_shared
FN:666,_RNvMsg_NtCscGbmKBa7Tyy_12gigastt_core9inferenceNtB5_6Engine4load
FN:646,_RNvMsg_NtCscGbmKBa7Tyy_12gigastt_core9inferenceNtB5_6Engine7is_int8
FN:1367,_RNvMsh_NtCscGbmKBa7Tyy_12gigastt_core9inferenceNtB5_17TranscriptSegment11empty_final
FN:363,_RNvXININtCscGbmKBa7Tyy_12gigastt_core9inferences5_0pEINtB5_9PoolGuardpENtNtNtCsl8K0bEFm1U0_4core3ops5deref8DerefMut9deref_mutB7_
FN:42,_RNvXNtCscGbmKBa7Tyy_12gigastt_core9inferenceNtB2_15SharedExtractorNtNtCsf2bSCHOBZc7_9polyvoice9embedding18EmbeddingExtractor13embedding_dim
FN:38,_RNvXNtCscGbmKBa7Tyy_12gigastt_core9inferenceNtB2_15SharedExtractorNtNtCsf2bSCHOBZc7_9polyvoice9embedding18EmbeddingExtractor7extract
FN:371,_RNvXs6_NtCscGbmKBa7Tyy_12gigastt_core9inferenceINtB5_9PoolGuardNtNtCs1OjIl8oxbrv_5alloc6string6StringENtNtNtCsl8K0bEFm1U0_4core3ops4drop4Drop4dropB7_
FN:371,_RNvXs6_NtCscGbmKBa7Tyy_12gigastt_core9inferenceINtB5_9PoolGuardmENtNtNtCsl8K0bEFm1U0_4core3ops4drop4Drop4dropB7_
FN:420,_RNvXsa_NtCscGbmKBa7Tyy_12gigastt_core9inferenceINtB5_16OwnedReservationNtNtCs1OjIl8oxbrv_5alloc6string6StringENtNtNtCsl8K0bEFm1U0_4core3ops4drop4Drop4dropB7_
FN:420,_RNvXsa_NtCscGbmKBa7Tyy_12gigastt_core9inferenceINtB5_16OwnedReservationmENtNtNtCsl8K0bEFm1U0_4core3ops4drop4Drop4dropB7_
FN:1456,_RNvNtNtCscGbmKBa7Tyy_12gigastt_core9inference5testss_12test_ort_err
FN:1451,_RNvNtNtCscGbmKBa7Tyy_12gigastt_core9inference5testss_23test_pool_error_display
FN:1640,_RNvNtNtCscGbmKBa7Tyy_12gigastt_core9inference5testss_23test_pool_waiters_count
FN:1468,_RNvNtNtCscGbmKBa7Tyy_12gigastt_core9inference5testss_26test_engine_load_empty_dir
FN:1382,_RNvNtNtCscGbmKBa7Tyy_12gigastt_core9inference5testss_28test_decoder_state_new_zeros
FN:1462,_RNvNtNtCscGbmKBa7Tyy_12gigastt_core9inference5testss_28test_engine_load_missing_dir
FN:1391,_RNvNtNtCscGbmKBa7Tyy_12gigastt_core9inference5testss_29test_decoder_state_dimensions
FN:1631,_RNvNtNtCscGbmKBa7Tyy_12gigastt_core9inference5testss_29test_pool_close_is_idempotent
FN:1404,_RNvNtNtCscGbmKBa7Tyy_12gigastt_core9inference5testss_30test_feature_extractor_default
FN:1825,_RNvNtNtCscGbmKBa7Tyy_12gigastt_core9inference5testss_31test_now_timestamp_non_negative
FN:1534,_RNvNtNtCscGbmKBa7Tyy_12gigastt_core9inference5testss_31test_pool_fifo_under_contention
FN:1409,_RNvNtNtCscGbmKBa7Tyy_12gigastt_core9inference5testss_33test_transcript_assembler_default
FN:1797,_RNvNtNtCscGbmKBa7Tyy_12gigastt_core9inference5testss_33test_transcript_assembler_partial
FN:1398,_RNvNtNtCscGbmKBa7Tyy_12gigastt_core9inference5testss_34test_decoder_state_custom_blank_id
FN:1570,_RNvNtNtCscGbmKBa7Tyy_12gigastt_core9inference5testss_34test_into_owned_for_spawn_blocking
FN:1425,_RNvNtNtCscGbmKBa7Tyy_12gigastt_core9inference5testss_34test_pool_checkout_blocking_closed
FN:1814,_RNvNtNtCscGbmKBa7Tyy_12gigastt_core9inference5testss_36test_feature_extractor_compute_empty
FN:1416,_RNvNtNtCscGbmKBa7Tyy_12gigastt_core9inference5testss_37test_pool_checkout_blocking_fast_path
FN:1432,_RNvNtNtCscGbmKBa7Tyy_12gigastt_core9inference5testss_37test_pool_checkout_blocking_slow_path
FN:1614,_RNvNtNtCscGbmKBa7Tyy_12gigastt_core9inference5testss_40test_owned_reservation_drop_returns_item
FN:1514,_RNvNtNtCscGbmKBa7Tyy_12gigastt_core9inference5testss_41test_pool_close_wakes_waiters_with_closed
FN:1735,_RNvNtNtCscGbmKBa7Tyy_12gigastt_core9inference5testss_43test_pool_multiple_dead_waiters_are_skipped
FN:1712,_RNvNtNtCscGbmKBa7Tyy_12gigastt_core9inference5testss_45test_pool_slot_not_leaked_on_timeout_checkout
FN:1767,_RNvNtNtCscGbmKBa7Tyy_12gigastt_core9inference5testss_45test_transcript_assembler_append_and_finalize
FN:1482,_RNvNtNtCscGbmKBa7Tyy_12gigastt_core9inference5testss_46test_pool_guard_returns_triplet_on_normal_drop
FN:1494,_RNvNtNtCscGbmKBa7Tyy_12gigastt_core9inference5testss_47test_pool_guard_returns_triplet_on_panic_unwind
FN:1682,_RNvNtNtCscGbmKBa7Tyy_12gigastt_core9inference5testss_47test_pool_slot_not_leaked_on_cancelled_checkout
FN:1658,_RNvNtNtCscGbmKBa7Tyy_12gigastt_core9inference5testss_48test_owned_reservation_round_trip_through_option
FN:1592,_RNvNtNtCscGbmKBa7Tyy_12gigastt_core9inference5testss_54test_owned_reservation_returns_on_spawn_blocking_panic
FN:1644,_RNCNCNvNtNtCscGbmKBa7Tyy_12gigastt_core9inference5testss_23test_pool_waiters_count00B9_
FN:1648,_RNCNCNvNtNtCscGbmKBa7Tyy_12gigastt_core9inference5testss_23test_pool_waiters_count0s_0B9_
FN:1549,_RNCNCNvNtNtCscGbmKBa7Tyy_12gigastt_core9inference5testss_31test_pool_fifo_under_contention00B9_
FN:1577,_RNCNCNvNtNtCscGbmKBa7Tyy_12gigastt_core9inference5testss_34test_into_owned_for_spawn_blocking00B9_
FN:1620,_RNCNCNvNtNtCscGbmKBa7Tyy_12gigastt_core9inference5testss_40test_owned_reservation_drop_returns_item00B9_
FN:1522,_RNCNCNvNtNtCscGbmKBa7Tyy_12gigastt_core9inference5testss_41test_pool_close_wakes_waiters_with_closed00B9_
FN:1745,_RNCNCNvNtNtCscGbmKBa7Tyy_12gigastt_core9inference5testss_43test_pool_multiple_dead_waiters_are_skipped00B9_
FN:1501,_RNCNCNvNtNtCscGbmKBa7Tyy_12gigastt_core9inference5testss_47test_pool_guard_returns_triplet_on_panic_unwind00B9_
FN:1693,_RNCNCNvNtNtCscGbmKBa7Tyy_12gigastt_core9inference5testss_47test_pool_slot_not_leaked_on_cancelled_checkout00B9_
FN:1666,_RNCNCNvNtNtCscGbmKBa7Tyy_12gigastt_core9inference5testss_48test_owned_reservation_round_trip_through_option00B9_
FN:1599,_RNCNCNvNtNtCscGbmKBa7Tyy_12gigastt_core9inference5testss_54test_owned_reservation_returns_on_spawn_blocking_panic00B9_
FN:1640,_RNCNvNtNtCscGbmKBa7Tyy_12gigastt_core9inference5testss_23test_pool_waiters_count0B7_
FN:1385,_RNCNvNtNtCscGbmKBa7Tyy_12gigastt_core9inference5testss_28test_decoder_state_new_zeros0B7_
FN:1386,_RNCNvNtNtCscGbmKBa7Tyy_12gigastt_core9inference5testss_28test_decoder_state_new_zeross_0B7_
FN:1631,_RNCNvNtNtCscGbmKBa7Tyy_12gigastt_core9inference5testss_29test_pool_close_is_idempotent0B7_
FN:1534,_RNCNvNtNtCscGbmKBa7Tyy_12gigastt_core9inference5testss_31test_pool_fifo_under_contention0B7_
FN:1570,_RNCNvNtNtCscGbmKBa7Tyy_12gigastt_core9inference5testss_34test_into_owned_for_spawn_blocking0B7_
FN:1821,_RNCNvNtNtCscGbmKBa7Tyy_12gigastt_core9inference5testss_36test_feature_extractor_compute_empty0B7_
FN:1438,_RNCNvNtNtCscGbmKBa7Tyy_12gigastt_core9inference5testss_37test_pool_checkout_blocking_slow_path0B7_
FN:1614,_RNCNvNtNtCscGbmKBa7Tyy_12gigastt_core9inference5testss_40test_owned_reservation_drop_returns_item0B7_
FN:1514,_RNCNvNtNtCscGbmKBa7Tyy_12gigastt_core9inference5testss_41test_pool_close_wakes_waiters_with_closed0B7_
FN:1735,_RNCNvNtNtCscGbmKBa7Tyy_12gigastt_core9inference5testss_43test_pool_multiple_dead_waiters_are_skipped0B7_
FN:1712,_RNCNvNtNtCscGbmKBa7Tyy_12gigastt_core9inference5testss_45test_pool_slot_not_leaked_on_timeout_checkout0B7_
FN:1482,_RNCNvNtNtCscGbmKBa7Tyy_12gigastt_core9inference5testss_46test_pool_guard_returns_triplet_on_normal_drop0B7_
FN:1494,_RNCNvNtNtCscGbmKBa7Tyy_12gigastt_core9inference5testss_47test_pool_guard_returns_triplet_on_panic_unwind0B7_
FN:1682,_RNCNvNtNtCscGbmKBa7Tyy_12gigastt_core9inference5testss_47test_pool_slot_not_leaked_on_cancelled_checkout0B7_
FN:1658,_RNCNvNtNtCscGbmKBa7Tyy_12gigastt_core9inference5testss_48test_owned_reservation_round_trip_through_option0B7_
FN:1592,_RNCNvNtNtCscGbmKBa7Tyy_12gigastt_core9inference5testss_54test_owned_reservation_returns_on_spawn_blocking_panic0B7_
FN:73,_RINvNtCscGbmKBa7Tyy_12gigastt_core9inference7ort_errINtNtCseRMXi1nj7qc_3ort5error5ErrorNtNtNtBT_7session7builder14SessionBuilderEEB4_
FN:73,_RINvNtCscGbmKBa7Tyy_12gigastt_core9inference7ort_errNtNtCseRMXi1nj7qc_3ort5error5ErrorEB4_
FN:73,_RINvNtCscGbmKBa7Tyy_12gigastt_core9inference7ort_errReEB4_
FN:848,_RNCNCNCNCNvMsg_NtCscGbmKBa7Tyy_12gigastt_core9inferenceNtBd_6Engine10load_inner0000Bf_
FN:860,_RNCNCNCNCNvMsg_NtCscGbmKBa7Tyy_12gigastt_core9inferenceNtBd_6Engine10load_inner000s_0Bf_
FN:847,_RNCNCNCNvMsg_NtCscGbmKBa7Tyy_12gigastt_core9inferenceNtBb_6Engine10load_inner000Bd_
FN:845,_RNCNCNvMsg_NtCscGbmKBa7Tyy_12gigastt_core9inferenceNtB9_6Engine10load_inner00Bb_
FN:866,_RNCNCNvMsg_NtCscGbmKBa7Tyy_12gigastt_core9inferenceNtB9_6Engine10load_inner0s_0Bb_
FN:174,_RNCNvMs1_NtCscGbmKBa7Tyy_12gigastt_core9inferenceINtB7_4PoolNtNtCs1OjIl8oxbrv_5alloc6string6StringE8checkout0B9_
FN:174,_RNCNvMs1_NtCscGbmKBa7Tyy_12gigastt_core9inferenceINtB7_4PoolmE8checkout0B9_
FN:343,_RNCNvMs3_NtCscGbmKBa7Tyy_12gigastt_core9inferenceINtB7_9PoolGuardNtNtCs1OjIl8oxbrv_5alloc6string6StringE10into_owned0B9_
FN:343,_RNCNvMs3_NtCscGbmKBa7Tyy_12gigastt_core9inferenceINtB7_9PoolGuardmE10into_owned0B9_
FN:843,_RNCNvMsg_NtCscGbmKBa7Tyy_12gigastt_core9inferenceNtB7_6Engine10load_inner0B9_
FN:780,_RNCNvMsg_NtCscGbmKBa7Tyy_12gigastt_core9inferenceNtB7_6Engine13load_sessions0B9_
FN:680,_RNCNvMsg_NtCscGbmKBa7Tyy_12gigastt_core9inferenceNtB7_6Engine19load_with_pool_size0B9_
FN:358,_RNCNvXs4_NtCscGbmKBa7Tyy_12gigastt_core9inferenceINtB7_9PoolGuardmENtNtNtCsl8K0bEFm1U0_4core3ops5deref5Deref5deref0B9_
FN:397,_RNCNvXs7_NtCscGbmKBa7Tyy_12gigastt_core9inferenceINtB7_16OwnedReservationNtNtCs1OjIl8oxbrv_5alloc6string6StringENtNtNtCsl8K0bEFm1U0_4core3ops5deref5Deref5deref0B9_
FN:397,_RNCNvXs7_NtCscGbmKBa7Tyy_12gigastt_core9inferenceINtB7_16OwnedReservationmENtNtNtCsl8K0bEFm1U0_4core3ops5deref5Deref5deref0B9_
FN:405,_RNCNvXs8_NtCscGbmKBa7Tyy_12gigastt_core9inferenceINtB7_16OwnedReservationmENtNtNtCsl8K0bEFm1U0_4core3ops5deref8DerefMut9deref_mut0B9_
FN:158,_RNvMs1_NtCscGbmKBa7Tyy_12gigastt_core9inferenceINtB5_4PoolNtB5_14SessionTripletE3newB7_
FN:158,_RNvMs1_NtCscGbmKBa7Tyy_12gigastt_core9inferenceINtB5_4PoolNtNtCs1OjIl8oxbrv_5alloc6string6StringE3newB7_
FN:174,_RNvMs1_NtCscGbmKBa7Tyy_12gigastt_core9inferenceINtB5_4PoolNtNtCs1OjIl8oxbrv_5alloc6string6StringE8checkoutB7_
FN:266,_RNvMs1_NtCscGbmKBa7Tyy_12gigastt_core9inferenceINtB5_4PoolNtNtCs1OjIl8oxbrv_5alloc6string6StringE9availableB7_
FN:213,_RNvMs1_NtCscGbmKBa7Tyy_12gigastt_core9inferenceINtB5_4PoolmE17checkout_blockingB7_
FN:158,_RNvMs1_NtCscGbmKBa7Tyy_12gigastt_core9inferenceINtB5_4PoolmE3newB7_
FN:251,_RNvMs1_NtCscGbmKBa7Tyy_12gigastt_core9inferenceINtB5_4PoolmE5closeB7_
FN:272,_RNvMs1_NtCscGbmKBa7Tyy_12gigastt_core9inferenceINtB5_4PoolmE7waitersB7_
FN:174,_RNvMs1_NtCscGbmKBa7Tyy_12gigastt_core9inferenceINtB5_4PoolmE8checkoutB7_
FN:266,_RNvMs1_NtCscGbmKBa7Tyy_12gigastt_core9inferenceINtB5_4PoolmE9availableB7_
FN:279,_RNvMs2_NtCscGbmKBa7Tyy_12gigastt_core9inferenceINtB5_9PoolInnerNtNtCs1OjIl8oxbrv_5alloc6string6StringE7checkinB7_
FN:279,_RNvMs2_NtCscGbmKBa7Tyy_12gigastt_core9inferenceINtB5_9PoolInnermE7checkinB7_
FN:339,_RNvMs3_NtCscGbmKBa7Tyy_12gigastt_core9inferenceINtB5_9PoolGuardNtNtCs1OjIl8oxbrv_5alloc6string6StringE10into_ownedB7_
FN:327,_RNvMs3_NtCscGbmKBa7Tyy_12gigastt_core9inferenceINtB5_9PoolGuardNtNtCs1OjIl8oxbrv_5alloc6string6StringE3newB7_
FN:339,_RNvMs3_NtCscGbmKBa7Tyy_12gigastt_core9inferenceINtB5_9PoolGuardmE10into_ownedB7_
FN:327,_RNvMs3_NtCscGbmKBa7Tyy_12gigastt_core9inferenceINtB5_9PoolGuardmE3newB7_
FN:412,_RNvMs9_NtCscGbmKBa7Tyy_12gigastt_core9inferenceINtB5_16OwnedReservationNtNtCs1OjIl8oxbrv_5alloc6string6StringE7checkinB7_
FN:355,_RNvXs4_NtCscGbmKBa7Tyy_12gigastt_core9inferenceINtB5_9PoolGuardmENtNtNtCsl8K0bEFm1U0_4core3ops5deref5Deref5derefB7_
FN:394,_RNvXs7_NtCscGbmKBa7Tyy_12gigastt_core9inferenceINtB5_16OwnedReservationNtNtCs1OjIl8oxbrv_5alloc6string6StringENtNtNtCsl8K0bEFm1U0_4core3ops5deref5Deref5derefB7_
FN:394,_RNvXs7_NtCscGbmKBa7Tyy_12gigastt_core9inferenceINtB5_16OwnedReservationmENtNtNtCsl8K0bEFm1U0_4core3ops5deref5Deref5derefB7_
FN:402,_RNvXs8_NtCscGbmKBa7Tyy_12gigastt_core9inferenceINtB5_16OwnedReservationmENtNtNtCsl8K0bEFm1U0_4core3ops5deref8DerefMut9deref_mutB7_
FN:445,_RNvMsb_NtCscGbmKBa7Tyy_12gigastt_core9inferenceNtB5_12DecoderState3new
FN:523,_RNvMsd_NtCscGbmKBa7Tyy_12gigastt_core9inferenceNtB5_16FeatureExtractor3new
FN:547,_RNvMsd_NtCscGbmKBa7Tyy_12gigastt_core9inferenceNtB5_16FeatureExtractor7compute
FN:570,_RNvMsf_NtCscGbmKBa7Tyy_12gigastt_core9inferenceNtB5_19TranscriptAssembler3new
FN:578,_RNvMsf_NtCscGbmKBa7Tyy_12gigastt_core9inferenceNtB5_19TranscriptAssembler6append
FN:599,_RNvMsf_NtCscGbmKBa7Tyy_12gigastt_core9inferenceNtB5_19TranscriptAssembler7partial
FN:589,_RNvMsf_NtCscGbmKBa7Tyy_12gigastt_core9inferenceNtB5_19TranscriptAssembler8finalize
FN:609,_RNvMsf_NtCscGbmKBa7Tyy_12gigastt_core9inferenceNtB5_19TranscriptAssembler8is_empty
FN:825,_RNvMsg_NtCscGbmKBa7Tyy_12gigastt_core9inferenceNtB5_6Engine10load_inner
FN:686,_RNvMsg_NtCscGbmKBa7Tyy_12gigastt_core9inferenceNtB5_6Engine13load_sessions
FN:671,_RNvMsg_NtCscGbmKBa7Tyy_12gigastt_core9inferenceNtB5_6Engine19load_with_pool_size
FN:77,_RNvNtCscGbmKBa7Tyy_12gigastt_core9inference13now_timestamp
FN:118,_RNvXs_NtCscGbmKBa7Tyy_12gigastt_core9inferenceNtB4_9PoolErrorNtNtCsl8K0bEFm1U0_4core3fmt7Display3fmt
FN:516,_RNvXsc_NtCscGbmKBa7Tyy_12gigastt_core9inferenceNtB5_16FeatureExtractorNtNtCsl8K0bEFm1U0_4core7default7Default7default
FN:563,_RNvXse_NtCscGbmKBa7Tyy_12gigastt_core9inferenceNtB5_19TranscriptAssemblerNtNtCsl8K0bEFm1U0_4core7default7Default7default
FN:371,_RNvXs6_NtCs56NpsMUp9BL_12gigastt_core9inferenceINtB5_9PoolGuardNtB5_14SessionTripletENtNtNtCsl8K0bEFm1U0_4core3ops4drop4Drop4dropCs6e09oN0mRLy_11gigastt_ffi
FN:420,_RNvXsa_NtCs56NpsMUp9BL_12gigastt_core9inferenceINtB5_16OwnedReservationNtB5_14SessionTripletENtNtNtCsl8K0bEFm1U0_4core3ops4drop4Drop4dropCs6e09oN0mRLy_11gigastt_ffi
FN:343,_RNCNvMs3_NtCs56NpsMUp9BL_12gigastt_core9inferenceINtB7_9PoolGuardNtB7_14SessionTripletE10into_owned0Cs6e09oN0mRLy_11gigastt_ffi
FN:366,_RNCNvXs5_NtCs56NpsMUp9BL_12gigastt_core9inferenceINtB7_9PoolGuardNtB7_14SessionTripletENtNtNtCsl8K0bEFm1U0_4core3ops5deref8DerefMut9deref_mut0Cs6e09oN0mRLy_11gigastt_ffi
FN:405,_RNCNvXs8_NtCs56NpsMUp9BL_12gigastt_core9inferenceINtB7_16OwnedReservationNtB7_14SessionTripletENtNtNtCsl8K0bEFm1U0_4core3ops5deref8DerefMut9deref_mut0Cs6e09oN0mRLy_11gigastt_ffi
FN:213,_RNvMs1_NtCs56NpsMUp9BL_12gigastt_core9inferenceINtB5_4PoolNtB5_14SessionTripletE17checkout_blockingCs6e09oN0mRLy_11gigastt_ffi
FN:279,_RNvMs2_NtCs56NpsMUp9BL_12gigastt_core9inferenceINtB5_9PoolInnerNtB5_14SessionTripletE7checkinCs6e09oN0mRLy_11gigastt_ffi
FN:339,_RNvMs3_NtCs56NpsMUp9BL_12gigastt_core9inferenceINtB5_9PoolGuardNtB5_14SessionTripletE10into_ownedCs6e09oN0mRLy_11gigastt_ffi
FN:327,_RNvMs3_NtCs56NpsMUp9BL_12gigastt_core9inferenceINtB5_9PoolGuardNtB5_14SessionTripletE3newCs6e09oN0mRLy_11gigastt_ffi
FN:412,_RNvMs9_NtCs56NpsMUp9BL_12gigastt_core9inferenceINtB5_16OwnedReservationNtB5_14SessionTripletE7checkinCs6e09oN0mRLy_11gigastt_ffi
FN:363,_RNvXs5_NtCs56NpsMUp9BL_12gigastt_core9inferenceINtB5_9PoolGuardNtB5_14SessionTripletENtNtNtCsl8K0bEFm1U0_4core3ops5deref8DerefMut9deref_mutCs6e09oN0mRLy_11gigastt_ffi
FN:402,_RNvXs8_NtCs56NpsMUp9BL_12gigastt_core9inferenceINtB5_16OwnedReservationNtB5_14SessionTripletENtNtNtCsl8K0bEFm1U0_4core3ops5deref8DerefMut9deref_mutCs6e09oN0mRLy_11gigastt_ffi
FNDA:0,_RNCNvMs1_NtCs56NpsMUp9BL_12gigastt_core9inferenceINtB7_4PoolNtB7_14SessionTripletE8checkout0Csbd9nAVVXtRC_7gigastt
FNDA:0,_RNCNvMs3_NtCs56NpsMUp9BL_12gigastt_core9inferenceINtB7_9PoolGuardNtB7_14SessionTripletE10into_owned0Csbd9nAVVXtRC_7gigastt
FNDA:0,_RNCNvXs8_NtCs56NpsMUp9BL_12gigastt_core9inferenceINtB7_16OwnedReservationNtB7_14SessionTripletENtNtNtCsl8K0bEFm1U0_4core3ops5deref8DerefMut9deref_mut0Csbd9nAVVXtRC_7gigastt
FNDA:0,_RNvMs1_NtCs56NpsMUp9BL_12gigastt_core9inferenceINtB5_4PoolNtB5_14SessionTripletE5closeCsbd9nAVVXtRC_7gigastt
FNDA:0,_RNvMs1_NtCs56NpsMUp9BL_12gigastt_core9inferenceINtB5_4PoolNtB5_14SessionTripletE5totalCsbd9nAVVXtRC_7gigastt
FNDA:0,_RNvMs1_NtCs56NpsMUp9BL_12gigastt_core9inferenceINtB5_4PoolNtB5_14SessionTripletE7waitersCsbd9nAVVXtRC_7gigastt
FNDA:0,_RNvMs1_NtCs56NpsMUp9BL_12gigastt_core9inferenceINtB5_4PoolNtB5_14SessionTripletE8checkoutCsbd9nAVVXtRC_7gigastt
FNDA:0,_RNvMs1_NtCs56NpsMUp9BL_12gigastt_core9inferenceINtB5_4PoolNtB5_14SessionTripletE9availableCsbd9nAVVXtRC_7gigastt
FNDA:0,_RNvMs2_NtCs56NpsMUp9BL_12gigastt_core9inferenceINtB5_9PoolInnerNtB5_14SessionTripletE7checkinCsbd9nAVVXtRC_7gigastt
FNDA:0,_RNvMs3_NtCs56NpsMUp9BL_12gigastt_core9inferenceINtB5_9PoolGuardNtB5_14SessionTripletE10into_ownedCsbd9nAVVXtRC_7gigastt
FNDA:0,_RNvMs3_NtCs56NpsMUp9BL_12gigastt_core9inferenceINtB5_9PoolGuardNtB5_14SessionTripletE3newCsbd9nAVVXtRC_7gigastt
FNDA:0,_RNvXs8_NtCs56NpsMUp9BL_12gigastt_core9inferenceINtB5_16OwnedReservationNtB5_14SessionTripletENtNtNtCsl8K0bEFm1U0_4core3ops5deref8DerefMut9deref_mutCsbd9nAVVXtRC_7gigastt
FNDA:0,_RNvXs6_NtCs56NpsMUp9BL_12gigastt_core9inferenceINtB5_9PoolGuardNtB5_14SessionTripletENtNtNtCsl8K0bEFm1U0_4core3ops4drop4Drop4dropCsbd9nAVVXtRC_7gigastt
FNDA:0,_RNvXsa_NtCs56NpsMUp9BL_12gigastt_core9inferenceINtB5_16OwnedReservationNtB5_14SessionTripletENtNtNtCsl8K0bEFm1U0_4core3ops4drop4Drop4dropCsbd9nAVVXtRC_7gigastt
FNDA:0,_RNCNvMs1_NtCs56NpsMUp9BL_12gigastt_core9inferenceINtB7_4PoolpE8checkout0B9_
FNDA:0,_RNCNvMs3_NtCs56NpsMUp9BL_12gigastt_core9inferenceINtB7_9PoolGuardpE10into_owned0B9_
FNDA:0,_RNCNvXININtCs56NpsMUp9BL_12gigastt_core9inferences4_0pEINtB7_9PoolGuardpENtNtNtCsl8K0bEFm1U0_4core3ops5deref5Deref5deref0B9_
FNDA:0,_RNCNvXININtCs56NpsMUp9BL_12gigastt_core9inferences5_0pEINtB7_9PoolGuardpENtNtNtCsl8K0bEFm1U0_4core3ops5deref8DerefMut9deref_mut0B9_
FNDA:0,_RNCNvXININtCs56NpsMUp9BL_12gigastt_core9inferences7_0pEINtB7_16OwnedReservationpENtNtNtCsl8K0bEFm1U0_4core3ops5deref5Deref5deref0B9_
FNDA:0,_RNCNvXININtCs56NpsMUp9BL_12gigastt_core9inferences8_0pEINtB7_16OwnedReservationpENtNtNtCsl8K0bEFm1U0_4core3ops5deref8DerefMut9deref_mut0B9_
FNDA:0,_RNvMs1_NtCs56NpsMUp9BL_12gigastt_core9inferenceINtB5_4PoolpE17checkout_blockingB7_
FNDA:0,_RNvMs1_NtCs56NpsMUp9BL_12gigastt_core9inferenceINtB5_4PoolpE5closeB7_
FNDA:0,_RNvMs1_NtCs56NpsMUp9BL_12gigastt_core9inferenceINtB5_4PoolpE5totalB7_
FNDA:0,_RNvMs1_NtCs56NpsMUp9BL_12gigastt_core9inferenceINtB5_4PoolpE7waitersB7_
FNDA:0,_RNvMs1_NtCs56NpsMUp9BL_12gigastt_core9inferenceINtB5_4PoolpE8checkoutB7_
FNDA:0,_RNvMs1_NtCs56NpsMUp9BL_12gigastt_core9inferenceINtB5_4PoolpE9availableB7_
FNDA:0,_RNvMs2_NtCs56NpsMUp9BL_12gigastt_core9inferenceINtB5_9PoolInnerpE7checkinB7_
FNDA:0,_RNvMs3_NtCs56NpsMUp9BL_12gigastt_core9inferenceINtB5_9PoolGuardpE10into_ownedB7_
FNDA:0,_RNvMs3_NtCs56NpsMUp9BL_12gigastt_core9inferenceINtB5_9PoolGuardpE3newB7_
FNDA:0,_RNvMs9_NtCs56NpsMUp9BL_12gigastt_core9inferenceINtB5_16OwnedReservationpE7checkinB7_
FNDA:0,_RNvXININtCs56NpsMUp9BL_12gigastt_core9inferences4_0pEINtB5_9PoolGuardpENtNtNtCsl8K0bEFm1U0_4core3ops5deref5Deref5derefB7_
FNDA:0,_RNvXININtCs56NpsMUp9BL_12gigastt_core9inferences5_0pEINtB5_9PoolGuardpENtNtNtCsl8K0bEFm1U0_4core3ops5deref8DerefMut9deref_mutB7_
FNDA:0,_RNvXININtCs56NpsMUp9BL_12gigastt_core9inferences6_0pEINtB5_9PoolGuardpENtNtNtCsl8K0bEFm1U0_4core3ops4drop4Drop4dropB7_
FNDA:0,_RNvXININtCs56NpsMUp9BL_12gigastt_core9inferences7_0pEINtB5_16OwnedReservationpENtNtNtCsl8K0bEFm1U0_4core3ops5deref5Deref5derefB7_
FNDA:0,_RNvXININtCs56NpsMUp9BL_12gigastt_core9inferences8_0pEINtB5_16OwnedReservationpENtNtNtCsl8K0bEFm1U0_4core3ops5deref8DerefMut9deref_mutB7_
FNDA:0,_RNvXININtCs56NpsMUp9BL_12gigastt_core9inferencesa_0pEINtB5_16OwnedReservationpENtNtNtCsl8K0bEFm1U0_4core3ops4drop4Drop4dropB7_
FNDA:0,_RINvNtCs56NpsMUp9BL_12gigastt_core9inference7ort_errINtNtCseRMXi1nj7qc_3ort5error5ErrorNtNtNtBT_7session7builder14SessionBuilderEEB4_
FNDA:0,_RINvNtCs56NpsMUp9BL_12gigastt_core9inference7ort_errNtNtCseRMXi1nj7qc_3ort5error5ErrorEB4_
FNDA:0,_RNCNCNCNCNvMsg_NtCs56NpsMUp9BL_12gigastt_core9inferenceNtBd_6Engine10load_inner0000Bf_
FNDA:0,_RNCNCNCNCNvMsg_NtCs56NpsMUp9BL_12gigastt_core9inferenceNtBd_6Engine10load_inner000s_0Bf_
FNDA:0,_RNCNCNCNvMsg_NtCs56NpsMUp9BL_12gigastt_core9inferenceNtBb_6Engine10load_inner000Bd_
FNDA:0,_RNCNCNvMsg_NtCs56NpsMUp9BL_12gigastt_core9inferenceNtB9_6Engine10load_inner00Bb_
FNDA:0,_RNCNCNvMsg_NtCs56NpsMUp9BL_12gigastt_core9inferenceNtB9_6Engine10load_inner0s_0Bb_
FNDA:0,_RNCNvMsg_NtCs56NpsMUp9BL_12gigastt_core9inferenceNtB7_6Engine10load_inner0B9_
FNDA:0,_RNCNvMsg_NtCs56NpsMUp9BL_12gigastt_core9inferenceNtB7_6Engine13load_sessions0B9_
FNDA:0,_RNCNvMsg_NtCs56NpsMUp9BL_12gigastt_core9inferenceNtB7_6Engine13process_chunk0B9_
FNDA:0,_RNCNvMsg_NtCs56NpsMUp9BL_12gigastt_core9inferenceNtB7_6Engine15transcribe_file0B9_
FNDA:0,_RNCNvMsg_NtCs56NpsMUp9BL_12gigastt_core9inferenceNtB7_6Engine18transcribe_samples0B9_
FNDA:0,_RNCNvMsg_NtCs56NpsMUp9BL_12gigastt_core9inferenceNtB7_6Engine18transcribe_sampless0_0B9_
FNDA:0,_RNCNvMsg_NtCs56NpsMUp9BL_12gigastt_core9inferenceNtB7_6Engine18transcribe_sampless_0B9_
FNDA:0,_RNCNvMsg_NtCs56NpsMUp9BL_12gigastt_core9inferenceNtB7_6Engine19load_with_pool_size0B9_
FNDA:0,_RNCNvMsg_NtCs56NpsMUp9BL_12gigastt_core9inferenceNtB7_6Engine23transcribe_bytes_shared0B9_
FNDA:0,_RNvMs1_NtCs56NpsMUp9BL_12gigastt_core9inferenceINtB5_4PoolNtB5_14SessionTripletE3newB7_
FNDA:0,_RNvMsb_NtCs56NpsMUp9BL_12gigastt_core9inferenceNtB5_12DecoderState3new
FNDA:0,_RNvMsd_NtCs56NpsMUp9BL_12gigastt_core9inferenceNtB5_16FeatureExtractor11compute_mel
FNDA:0,_RNvMsd_NtCs56NpsMUp9BL_12gigastt_core9inferenceNtB5_16FeatureExtractor14prepare_buffer
FNDA:0,_RNvMsd_NtCs56NpsMUp9BL_12gigastt_core9inferenceNtB5_16FeatureExtractor3new
FNDA:0,_RNvMsd_NtCs56NpsMUp9BL_12gigastt_core9inferenceNtB5_16FeatureExtractor7compute
FNDA:0,_RNvMsf_NtCs56NpsMUp9BL_12gigastt_core9inferenceNtB5_19TranscriptAssembler3new
FNDA:0,_RNvMsf_NtCs56NpsMUp9BL_12gigastt_core9inferenceNtB5_19TranscriptAssembler6append
FNDA:0,_RNvMsf_NtCs56NpsMUp9BL_12gigastt_core9inferenceNtB5_19TranscriptAssembler7partial
FNDA:0,_RNvMsf_NtCs56NpsMUp9BL_12gigastt_core9inferenceNtB5_19TranscriptAssembler8finalize
FNDA:0,_RNvMsf_NtCs56NpsMUp9BL_12gigastt_core9inferenceNtB5_19TranscriptAssembler8is_empty
FNDA:0,_RNvMsg_NtCs56NpsMUp9BL_12gigastt_core9inferenceNtB5_6Engine10load_inner
FNDA:0,_RNvMsg_NtCs56NpsMUp9BL_12gigastt_core9inferenceNtB5_6Engine10vocab_size
FNDA:0,_RNvMsg_NtCs56NpsMUp9BL_12gigastt_core9inferenceNtB5_6Engine11flush_state
FNDA:0,_RNvMsg_NtCs56NpsMUp9BL_12gigastt_core9inferenceNtB5_6Engine12create_state
FNDA:0,_RNvMsg_NtCs56NpsMUp9BL_12gigastt_core9inferenceNtB5_6Engine13load_sessions
FNDA:0,_RNvMsg_NtCs56NpsMUp9BL_12gigastt_core9inferenceNtB5_6Engine13process_chunk
FNDA:0,_RNvMsg_NtCs56NpsMUp9BL_12gigastt_core9inferenceNtB5_6Engine13run_inference
FNDA:0,_RNvMsg_NtCs56NpsMUp9BL_12gigastt_core9inferenceNtB5_6Engine15tokens_to_words
FNDA:0,_RNvMsg_NtCs56NpsMUp9BL_12gigastt_core9inferenceNtB5_6Engine15transcribe_file
FNDA:0,_RNvMsg_NtCs56NpsMUp9BL_12gigastt_core9inferenceNtB5_6Engine16transcribe_bytes
FNDA:0,_RNvMsg_NtCs56NpsMUp9BL_12gigastt_core9inferenceNtB5_6Engine18transcribe_samples
FNDA:0,_RNvMsg_NtCs56NpsMUp9BL_12gigastt_core9inferenceNtB5_6Engine19has_speaker_encoder
FNDA:0,_RNvMsg_NtCs56NpsMUp9BL_12gigastt_core9inferenceNtB5_6Engine19load_with_pool_size
FNDA:0,_RNvMsg_NtCs56NpsMUp9BL_12gigastt_core9inferenceNtB5_6Engine23transcribe_bytes_shared
FNDA:0,_RNvMsg_NtCs56NpsMUp9BL_12gigastt_core9inferenceNtB5_6Engine4load
FNDA:0,_RNvMsg_NtCs56NpsMUp9BL_12gigastt_core9inferenceNtB5_6Engine7is_int8
FNDA:0,_RNvMsh_NtCs56NpsMUp9BL_12gigastt_core9inferenceNtB5_17TranscriptSegment11empty_final
FNDA:0,_RNvNtCs56NpsMUp9BL_12gigastt_core9inference13now_timestamp
FNDA:0,_RNvXNtCs56NpsMUp9BL_12gigastt_core9inferenceNtB2_15SharedExtractorNtNtCsf2bSCHOBZc7_9polyvoice9embedding18EmbeddingExtractor13embedding_dim
FNDA:0,_RNvXNtCs56NpsMUp9BL_12gigastt_core9inferenceNtB2_15SharedExtractorNtNtCsf2bSCHOBZc7_9polyvoice9embedding18EmbeddingExtractor7extract
FNDA:0,_RNvXs_NtCs56NpsMUp9BL_12gigastt_core9inferenceNtB4_9PoolErrorNtNtCsl8K0bEFm1U0_4core3fmt7Display3fmt
FNDA:0,_RNvXsc_NtCs56NpsMUp9BL_12gigastt_core9inferenceNtB5_16FeatureExtractorNtNtCsl8K0bEFm1U0_4core7default7Default7default
FNDA:0,_RNvXse_NtCs56NpsMUp9BL_12gigastt_core9inferenceNtB5_19TranscriptAssemblerNtNtCsl8K0bEFm1U0_4core7default7Default7default
FNDA:0,_RNCNvMs1_NtCs56NpsMUp9BL_12gigastt_core9inferenceINtB7_4PoolNtB7_14SessionTripletE8checkout0Csk023ZLJrxN2_7gigastt
FNDA:0,_RNCNvMs3_NtCs56NpsMUp9BL_12gigastt_core9inferenceINtB7_9PoolGuardNtB7_14SessionTripletE10into_owned0Csk023ZLJrxN2_7gigastt
FNDA:0,_RNCNvXs8_NtCs56NpsMUp9BL_12gigastt_core9inferenceINtB7_16OwnedReservationNtB7_14SessionTripletENtNtNtCsl8K0bEFm1U0_4core3ops5deref8DerefMut9deref_mut0Csk023ZLJrxN2_7gigastt
FNDA:0,_RNvMs1_NtCs56NpsMUp9BL_12gigastt_core9inferenceINtB5_4PoolNtB5_14SessionTripletE17checkout_blockingCsk023ZLJrxN2_7gigastt
FNDA:0,_RNvMs1_NtCs56NpsMUp9BL_12gigastt_core9inferenceINtB5_4PoolNtB5_14SessionTripletE5closeCsk023ZLJrxN2_7gigastt
FNDA:0,_RNvMs1_NtCs56NpsMUp9BL_12gigastt_core9inferenceINtB5_4PoolNtB5_14SessionTripletE5totalCsk023ZLJrxN2_7gigastt
FNDA:0,_RNvMs1_NtCs56NpsMUp9BL_12gigastt_core9inferenceINtB5_4PoolNtB5_14SessionTripletE7waitersCsk023ZLJrxN2_7gigastt
FNDA:0,_RNvMs1_NtCs56NpsMUp9BL_12gigastt_core9inferenceINtB5_4PoolNtB5_14SessionTripletE8checkoutCsk023ZLJrxN2_7gigastt
FNDA:0,_RNvMs1_NtCs56NpsMUp9BL_12gigastt_core9inferenceINtB5_4PoolNtB5_14SessionTripletE9availableCsk023ZLJrxN2_7gigastt
FNDA:0,_RNvMs2_NtCs56NpsMUp9BL_12gigastt_core9inferenceINtB5_9PoolInnerNtB5_14SessionTripletE7checkinCsk023ZLJrxN2_7gigastt
FNDA:0,_RNvMs3_NtCs56NpsMUp9BL_12gigastt_core9inferenceINtB5_9PoolGuardNtB5_14SessionTripletE10into_ownedCsk023ZLJrxN2_7gigastt
FNDA:0,_RNvMs3_NtCs56NpsMUp9BL_12gigastt_core9inferenceINtB5_9PoolGuardNtB5_14SessionTripletE3newCsk023ZLJrxN2_7gigastt
FNDA:0,_RNvXs8_NtCs56NpsMUp9BL_12gigastt_core9inferenceINtB5_16OwnedReservationNtB5_14SessionTripletENtNtNtCsl8K0bEFm1U0_4core3ops5deref8DerefMut9deref_mutCsk023ZLJrxN2_7gigastt
FNDA:0,_RNvXs6_NtCs56NpsMUp9BL_12gigastt_core9inferenceINtB5_9PoolGuardNtB5_14SessionTripletENtNtNtCsl8K0bEFm1U0_4core3ops4drop4Drop4dropCsk023ZLJrxN2_7gigastt
FNDA:0,_RNvXsa_NtCs56NpsMUp9BL_12gigastt_core9inferenceINtB5_16OwnedReservationNtB5_14SessionTripletENtNtNtCsl8K0bEFm1U0_4core3ops4drop4Drop4dropCsk023ZLJrxN2_7gigastt
FNDA:0,_RNCNvMsg_NtCscGbmKBa7Tyy_12gigastt_core9inferenceNtB7_6Engine13process_chunk0B9_
FNDA:0,_RNCNvMsg_NtCscGbmKBa7Tyy_12gigastt_core9inferenceNtB7_6Engine15transcribe_file0B9_
FNDA:0,_RNCNvMsg_NtCscGbmKBa7Tyy_12gigastt_core9inferenceNtB7_6Engine18transcribe_samples0B9_
FNDA:0,_RNCNvMsg_NtCscGbmKBa7Tyy_12gigastt_core9inferenceNtB7_6Engine18transcribe_sampless0_0B9_
FNDA:0,_RNCNvMsg_NtCscGbmKBa7Tyy_12gigastt_core9inferenceNtB7_6Engine18transcribe_sampless_0B9_
FNDA:0,_RNCNvMsg_NtCscGbmKBa7Tyy_12gigastt_core9inferenceNtB7_6Engine23transcribe_bytes_shared0B9_
FNDA:0,_RNCNvXININtCscGbmKBa7Tyy_12gigastt_core9inferences5_0pEINtB7_9PoolGuardpENtNtNtCsl8K0bEFm1U0_4core3ops5deref8DerefMut9deref_mut0B9_
FNDA:0,_RNvMs1_NtCscGbmKBa7Tyy_12gigastt_core9inferenceINtB5_4PoolpE5totalB7_
FNDA:0,_RNvMsd_NtCscGbmKBa7Tyy_12gigastt_core9inferenceNtB5_16FeatureExtractor11compute_mel
FNDA:0,_RNvMsd_NtCscGbmKBa7Tyy_12gigastt_core9inferenceNtB5_16FeatureExtractor14prepare_buffer
FNDA:0,_RNvMsg_NtCscGbmKBa7Tyy_12gigastt_core9inferenceNtB5_6Engine10vocab_size
FNDA:0,_RNvMsg_NtCscGbmKBa7Tyy_12gigastt_core9inferenceNtB5_6Engine11flush_state
FNDA:0,_RNvMsg_NtCscGbmKBa7Tyy_12gigastt_core9inferenceNtB5_6Engine12create_state
FNDA:0,_RNvMsg_NtCscGbmKBa7Tyy_12gigastt_core9inferenceNtB5_6Engine13process_chunk
FNDA:0,_RNvMsg_NtCscGbmKBa7Tyy_12gigastt_core9inferenceNtB5_6Engine13run_inference
FNDA:0,_RNvMsg_NtCscGbmKBa7Tyy_12gigastt_core9inferenceNtB5_6Engine15tokens_to_words
FNDA:0,_RNvMsg_NtCscGbmKBa7Tyy_12gigastt_core9inferenceNtB5_6Engine15transcribe_file
FNDA:0,_RNvMsg_NtCscGbmKBa7Tyy_12gigastt_core9inferenceNtB5_6Engine16transcribe_bytes
FNDA:0,_RNvMsg_NtCscGbmKBa7Tyy_12gigastt_core9inferenceNtB5_6Engine18transcribe_samples
FNDA:0,_RNvMsg_NtCscGbmKBa7Tyy_12gigastt_core9inferenceNtB5_6Engine19has_speaker_encoder
FNDA:0,_RNvMsg_NtCscGbmKBa7Tyy_12gigastt_core9inferenceNtB5_6Engine23transcribe_bytes_shared
FNDA:0,_RNvMsg_NtCscGbmKBa7Tyy_12gigastt_core9inferenceNtB5_6Engine4load
FNDA:0,_RNvMsg_NtCscGbmKBa7Tyy_12gigastt_core9inferenceNtB5_6Engine7is_int8
FNDA:0,_RNvMsh_NtCscGbmKBa7Tyy_12gigastt_core9inferenceNtB5_17TranscriptSegment11empty_final
FNDA:0,_RNvXININtCscGbmKBa7Tyy_12gigastt_core9inferences5_0pEINtB5_9PoolGuardpENtNtNtCsl8K0bEFm1U0_4core3ops5deref8DerefMut9deref_mutB7_
FNDA:0,_RNvXNtCscGbmKBa7Tyy_12gigastt_core9inferenceNtB2_15SharedExtractorNtNtCsf2bSCHOBZc7_9polyvoice9embedding18EmbeddingExtractor13embedding_dim
FNDA:0,_RNvXNtCscGbmKBa7Tyy_12gigastt_core9inferenceNtB2_15SharedExtractorNtNtCsf2bSCHOBZc7_9polyvoice9embedding18EmbeddingExtractor7extract
FNDA:3,_RNvXs6_NtCscGbmKBa7Tyy_12gigastt_core9inferenceINtB5_9PoolGuardNtNtCs1OjIl8oxbrv_5alloc6string6StringENtNtNtCsl8K0bEFm1U0_4core3ops4drop4Drop4dropB7_
FNDA:13,_RNvXs6_NtCscGbmKBa7Tyy_12gigastt_core9inferenceINtB5_9PoolGuardmENtNtNtCsl8K0bEFm1U0_4core3ops4drop4Drop4dropB7_
FNDA:3,_RNvXsa_NtCscGbmKBa7Tyy_12gigastt_core9inferenceINtB5_16OwnedReservationNtNtCs1OjIl8oxbrv_5alloc6string6StringENtNtNtCsl8K0bEFm1U0_4core3ops4drop4Drop4dropB7_
FNDA:1,_RNvXsa_NtCscGbmKBa7Tyy_12gigastt_core9inferenceINtB5_16OwnedReservationmENtNtNtCsl8K0bEFm1U0_4core3ops4drop4Drop4dropB7_
FNDA:1,_RNvNtNtCscGbmKBa7Tyy_12gigastt_core9inference5testss_12test_ort_err
FNDA:1,_RNvNtNtCscGbmKBa7Tyy_12gigastt_core9inference5testss_23test_pool_error_display
FNDA:1,_RNvNtNtCscGbmKBa7Tyy_12gigastt_core9inference5testss_23test_pool_waiters_count
FNDA:1,_RNvNtNtCscGbmKBa7Tyy_12gigastt_core9inference5testss_26test_engine_load_empty_dir
FNDA:1,_RNvNtNtCscGbmKBa7Tyy_12gigastt_core9inference5testss_28test_decoder_state_new_zeros
FNDA:1,_RNvNtNtCscGbmKBa7Tyy_12gigastt_core9inference5testss_28test_engine_load_missing_dir
FNDA:1,_RNvNtNtCscGbmKBa7Tyy_12gigastt_core9inference5testss_29test_decoder_state_dimensions
FNDA:1,_RNvNtNtCscGbmKBa7Tyy_12gigastt_core9inference5testss_29test_pool_close_is_idempotent
FNDA:1,_RNvNtNtCscGbmKBa7Tyy_12gigastt_core9inference5testss_30test_feature_extractor_default
FNDA:1,_RNvNtNtCscGbmKBa7Tyy_12gigastt_core9inference5testss_31test_now_timestamp_non_negative
FNDA:1,_RNvNtNtCscGbmKBa7Tyy_12gigastt_core9inference5testss_31test_pool_fifo_under_contention
FNDA:1,_RNvNtNtCscGbmKBa7Tyy_12gigastt_core9inference5testss_33test_transcript_assembler_default
FNDA:1,_RNvNtNtCscGbmKBa7Tyy_12gigastt_core9inference5testss_33test_transcript_assembler_partial
FNDA:1,_RNvNtNtCscGbmKBa7Tyy_12gigastt_core9inference5testss_34test_decoder_state_custom_blank_id
FNDA:1,_RNvNtNtCscGbmKBa7Tyy_12gigastt_core9inference5testss_34test_into_owned_for_spawn_blocking
FNDA:1,_RNvNtNtCscGbmKBa7Tyy_12gigastt_core9inference5testss_34test_pool_checkout_blocking_closed
FNDA:1,_RNvNtNtCscGbmKBa7Tyy_12gigastt_core9inference5testss_36test_feature_extractor_compute_empty
FNDA:1,_RNvNtNtCscGbmKBa7Tyy_12gigastt_core9inference5testss_37test_pool_checkout_blocking_fast_path
FNDA:1,_RNvNtNtCscGbmKBa7Tyy_12gigastt_core9inference5testss_37test_pool_checkout_blocking_slow_path
FNDA:1,_RNvNtNtCscGbmKBa7Tyy_12gigastt_core9inference5testss_40test_owned_reservation_drop_returns_item
FNDA:1,_RNvNtNtCscGbmKBa7Tyy_12gigastt_core9inference5testss_41test_pool_close_wakes_waiters_with_closed
FNDA:1,_RNvNtNtCscGbmKBa7Tyy_12gigastt_core9inference5testss_43test_pool_multiple_dead_waiters_are_skipped
FNDA:1,_RNvNtNtCscGbmKBa7Tyy_12gigastt_core9inference5testss_45test_pool_slot_not_leaked_on_timeout_checkout
FNDA:1,_RNvNtNtCscGbmKBa7Tyy_12gigastt_core9inference5testss_45test_transcript_assembler_append_and_finalize
FNDA:1,_RNvNtNtCscGbmKBa7Tyy_12gigastt_core9inference5testss_46test_pool_guard_returns_triplet_on_normal_drop
FNDA:1,_RNvNtNtCscGbmKBa7Tyy_12gigastt_core9inference5testss_47test_pool_guard_returns_triplet_on_panic_unwind
FNDA:1,_RNvNtNtCscGbmKBa7Tyy_12gigastt_core9inference5testss_47test_pool_slot_not_leaked_on_cancelled_checkout
FNDA:1,_RNvNtNtCscGbmKBa7Tyy_12gigastt_core9inference5testss_48test_owned_reservation_round_trip_through_option
FNDA:1,_RNvNtNtCscGbmKBa7Tyy_12gigastt_core9inference5testss_54test_owned_reservation_returns_on_spawn_blocking_panic
FNDA:1,_RNCNCNvNtNtCscGbmKBa7Tyy_12gigastt_core9inference5testss_23test_pool_waiters_count00B9_
FNDA:1,_RNCNCNvNtNtCscGbmKBa7Tyy_12gigastt_core9inference5testss_23test_pool_waiters_count0s_0B9_
FNDA:3,_RNCNCNvNtNtCscGbmKBa7Tyy_12gigastt_core9inference5testss_31test_pool_fifo_under_contention00B9_
FNDA:1,_RNCNCNvNtNtCscGbmKBa7Tyy_12gigastt_core9inference5testss_34test_into_owned_for_spawn_blocking00B9_
FNDA:1,_RNCNCNvNtNtCscGbmKBa7Tyy_12gigastt_core9inference5testss_40test_owned_reservation_drop_returns_item00B9_
FNDA:1,_RNCNCNvNtNtCscGbmKBa7Tyy_12gigastt_core9inference5testss_41test_pool_close_wakes_waiters_with_closed00B9_
FNDA:3,_RNCNCNvNtNtCscGbmKBa7Tyy_12gigastt_core9inference5testss_43test_pool_multiple_dead_waiters_are_skipped00B9_
FNDA:1,_RNCNCNvNtNtCscGbmKBa7Tyy_12gigastt_core9inference5testss_47test_pool_guard_returns_triplet_on_panic_unwind00B9_
FNDA:1,_RNCNCNvNtNtCscGbmKBa7Tyy_12gigastt_core9inference5testss_47test_pool_slot_not_leaked_on_cancelled_checkout00B9_
FNDA:1,_RNCNCNvNtNtCscGbmKBa7Tyy_12gigastt_core9inference5testss_48test_owned_reservation_round_trip_through_option00B9_
FNDA:1,_RNCNCNvNtNtCscGbmKBa7Tyy_12gigastt_core9inference5testss_54test_owned_reservation_returns_on_spawn_blocking_panic00B9_
FNDA:1,_RNCNvNtNtCscGbmKBa7Tyy_12gigastt_core9inference5testss_23test_pool_waiters_count0B7_
FNDA:320,_RNCNvNtNtCscGbmKBa7Tyy_12gigastt_core9inference5testss_28test_decoder_state_new_zeros0B7_
FNDA:320,_RNCNvNtNtCscGbmKBa7Tyy_12gigastt_core9inference5testss_28test_decoder_state_new_zeross_0B7_
FNDA:1,_RNCNvNtNtCscGbmKBa7Tyy_12gigastt_core9inference5testss_29test_pool_close_is_idempotent0B7_
FNDA:1,_RNCNvNtNtCscGbmKBa7Tyy_12gigastt_core9inference5testss_31test_pool_fifo_under_contention0B7_
FNDA:1,_RNCNvNtNtCscGbmKBa7Tyy_12gigastt_core9inference5testss_34test_into_owned_for_spawn_blocking0B7_
FNDA:64,_RNCNvNtNtCscGbmKBa7Tyy_12gigastt_core9inference5testss_36test_feature_extractor_compute_empty0B7_
FNDA:1,_RNCNvNtNtCscGbmKBa7Tyy_12gigastt_core9inference5testss_37test_pool_checkout_blocking_slow_path0B7_
FNDA:1,_RNCNvNtNtCscGbmKBa7Tyy_12gigastt_core9inference5testss_40test_owned_reservation_drop_returns_item0B7_
FNDA:1,_RNCNvNtNtCscGbmKBa7Tyy_12gigastt_core9inference5testss_41test_pool_close_wakes_waiters_with_closed0B7_
FNDA:1,_RNCNvNtNtCscGbmKBa7Tyy_12gigastt_core9inference5testss_43test_pool_multiple_dead_waiters_are_skipped0B7_
FNDA:1,_RNCNvNtNtCscGbmKBa7Tyy_12gigastt_core9inference5testss_45test_pool_slot_not_leaked_on_timeout_checkout0B7_
FNDA:1,_RNCNvNtNtCscGbmKBa7Tyy_12gigastt_core9inference5testss_46test_pool_guard_returns_triplet_on_normal_drop0B7_
FNDA:1,_RNCNvNtNtCscGbmKBa7Tyy_12gigastt_core9inference5testss_47test_pool_guard_returns_triplet_on_panic_unwind0B7_
FNDA:1,_RNCNvNtNtCscGbmKBa7Tyy_12gigastt_core9inference5testss_47test_pool_slot_not_leaked_on_cancelled_checkout0B7_
FNDA:1,_RNCNvNtNtCscGbmKBa7Tyy_12gigastt_core9inference5testss_48test_owned_reservation_round_trip_through_option0B7_
FNDA:1,_RNCNvNtNtCscGbmKBa7Tyy_12gigastt_core9inference5testss_54test_owned_reservation_returns_on_spawn_blocking_panic0B7_
FNDA:0,_RINvNtCscGbmKBa7Tyy_12gigastt_core9inference7ort_errINtNtCseRMXi1nj7qc_3ort5error5ErrorNtNtNtBT_7session7builder14SessionBuilderEEB4_
FNDA:0,_RINvNtCscGbmKBa7Tyy_12gigastt_core9inference7ort_errNtNtCseRMXi1nj7qc_3ort5error5ErrorEB4_
FNDA:1,_RINvNtCscGbmKBa7Tyy_12gigastt_core9inference7ort_errReEB4_
FNDA:0,_RNCNCNCNCNvMsg_NtCscGbmKBa7Tyy_12gigastt_core9inferenceNtBd_6Engine10load_inner0000Bf_
FNDA:0,_RNCNCNCNCNvMsg_NtCscGbmKBa7Tyy_12gigastt_core9inferenceNtBd_6Engine10load_inner000s_0Bf_
FNDA:0,_RNCNCNCNvMsg_NtCscGbmKBa7Tyy_12gigastt_core9inferenceNtBb_6Engine10load_inner000Bd_
FNDA:0,_RNCNCNvMsg_NtCscGbmKBa7Tyy_12gigastt_core9inferenceNtB9_6Engine10load_inner00Bb_
FNDA:0,_RNCNCNvMsg_NtCscGbmKBa7Tyy_12gigastt_core9inferenceNtB9_6Engine10load_inner0s_0Bb_
FNDA:3,_RNCNvMs1_NtCscGbmKBa7Tyy_12gigastt_core9inferenceINtB7_4PoolNtNtCs1OjIl8oxbrv_5alloc6string6StringE8checkout0B9_
FNDA:18,_RNCNvMs1_NtCscGbmKBa7Tyy_12gigastt_core9inferenceINtB7_4PoolmE8checkout0B9_
FNDA:0,_RNCNvMs3_NtCscGbmKBa7Tyy_12gigastt_core9inferenceINtB7_9PoolGuardNtNtCs1OjIl8oxbrv_5alloc6string6StringE10into_owned0B9_
FNDA:0,_RNCNvMs3_NtCscGbmKBa7Tyy_12gigastt_core9inferenceINtB7_9PoolGuardmE10into_owned0B9_
FNDA:0,_RNCNvMsg_NtCscGbmKBa7Tyy_12gigastt_core9inferenceNtB7_6Engine10load_inner0B9_
FNDA:0,_RNCNvMsg_NtCscGbmKBa7Tyy_12gigastt_core9inferenceNtB7_6Engine13load_sessions0B9_
FNDA:0,_RNCNvMsg_NtCscGbmKBa7Tyy_12gigastt_core9inferenceNtB7_6Engine19load_with_pool_size0B9_
FNDA:0,_RNCNvXs4_NtCscGbmKBa7Tyy_12gigastt_core9inferenceINtB7_9PoolGuardmENtNtNtCsl8K0bEFm1U0_4core3ops5deref5Deref5deref0B9_
FNDA:0,_RNCNvXs7_NtCscGbmKBa7Tyy_12gigastt_core9inferenceINtB7_16OwnedReservationNtNtCs1OjIl8oxbrv_5alloc6string6StringENtNtNtCsl8K0bEFm1U0_4core3ops5deref5Deref5deref0B9_
FNDA:0,_RNCNvXs7_NtCscGbmKBa7Tyy_12gigastt_core9inferenceINtB7_16OwnedReservationmENtNtNtCsl8K0bEFm1U0_4core3ops5deref5Deref5deref0B9_
FNDA:0,_RNCNvXs8_NtCscGbmKBa7Tyy_12gigastt_core9inferenceINtB7_16OwnedReservationmENtNtNtCsl8K0bEFm1U0_4core3ops5deref8DerefMut9deref_mut0B9_
FNDA:0,_RNvMs1_NtCscGbmKBa7Tyy_12gigastt_core9inferenceINtB5_4PoolNtB5_14SessionTripletE3newB7_
FNDA:3,_RNvMs1_NtCscGbmKBa7Tyy_12gigastt_core9inferenceINtB5_4PoolNtNtCs1OjIl8oxbrv_5alloc6string6StringE3newB7_
FNDA:3,_RNvMs1_NtCscGbmKBa7Tyy_12gigastt_core9inferenceINtB5_4PoolNtNtCs1OjIl8oxbrv_5alloc6string6StringE8checkoutB7_
FNDA:3,_RNvMs1_NtCscGbmKBa7Tyy_12gigastt_core9inferenceINtB5_4PoolNtNtCs1OjIl8oxbrv_5alloc6string6StringE9availableB7_
FNDA:4,_RNvMs1_NtCscGbmKBa7Tyy_12gigastt_core9inferenceINtB5_4PoolmE17checkout_blockingB7_
FNDA:13,_RNvMs1_NtCscGbmKBa7Tyy_12gigastt_core9inferenceINtB5_4PoolmE3newB7_
FNDA:5,_RNvMs1_NtCscGbmKBa7Tyy_12gigastt_core9inferenceINtB5_4PoolmE5closeB7_
FNDA:7,_RNvMs1_NtCscGbmKBa7Tyy_12gigastt_core9inferenceINtB5_4PoolmE7waitersB7_
FNDA:18,_RNvMs1_NtCscGbmKBa7Tyy_12gigastt_core9inferenceINtB5_4PoolmE8checkoutB7_
FNDA:13,_RNvMs1_NtCscGbmKBa7Tyy_12gigastt_core9inferenceINtB5_4PoolmE9availableB7_
FNDA:3,_RNvMs2_NtCscGbmKBa7Tyy_12gigastt_core9inferenceINtB5_9PoolInnerNtNtCs1OjIl8oxbrv_5alloc6string6StringE7checkinB7_
FNDA:13,_RNvMs2_NtCscGbmKBa7Tyy_12gigastt_core9inferenceINtB5_9PoolInnermE7checkinB7_
FNDA:3,_RNvMs3_NtCscGbmKBa7Tyy_12gigastt_core9inferenceINtB5_9PoolGuardNtNtCs1OjIl8oxbrv_5alloc6string6StringE10into_ownedB7_
FNDA:3,_RNvMs3_NtCscGbmKBa7Tyy_12gigastt_core9inferenceINtB5_9PoolGuardNtNtCs1OjIl8oxbrv_5alloc6string6StringE3newB7_
FNDA:1,_RNvMs3_NtCscGbmKBa7Tyy_12gigastt_core9inferenceINtB5_9PoolGuardmE10into_ownedB7_
FNDA:13,_RNvMs3_NtCscGbmKBa7Tyy_12gigastt_core9inferenceINtB5_9PoolGuardmE3newB7_
FNDA:1,_RNvMs9_NtCscGbmKBa7Tyy_12gigastt_core9inferenceINtB5_16OwnedReservationNtNtCs1OjIl8oxbrv_5alloc6string6StringE7checkinB7_
FNDA:2,_RNvXs4_NtCscGbmKBa7Tyy_12gigastt_core9inferenceINtB5_9PoolGuardmENtNtNtCsl8K0bEFm1U0_4core3ops5deref5Deref5derefB7_
FNDA:1,_RNvXs7_NtCscGbmKBa7Tyy_12gigastt_core9inferenceINtB5_16OwnedReservationNtNtCs1OjIl8oxbrv_5alloc6string6StringENtNtNtCsl8K0bEFm1U0_4core3ops5deref5Deref5derefB7_
FNDA:1,_RNvXs7_NtCscGbmKBa7Tyy_12gigastt_core9inferenceINtB5_16OwnedReservationmENtNtNtCsl8K0bEFm1U0_4core3ops5deref5Deref5derefB7_
FNDA:1,_RNvXs8_NtCscGbmKBa7Tyy_12gigastt_core9inferenceINtB5_16OwnedReservationmENtNtNtCsl8K0bEFm1U0_4core3ops5deref8DerefMut9deref_mutB7_
FNDA:3,_RNvMsb_NtCscGbmKBa7Tyy_12gigastt_core9inferenceNtB5_12DecoderState3new
FNDA:2,_RNvMsd_NtCscGbmKBa7Tyy_12gigastt_core9inferenceNtB5_16FeatureExtractor3new
FNDA:1,_RNvMsd_NtCscGbmKBa7Tyy_12gigastt_core9inferenceNtB5_16FeatureExtractor7compute
FNDA:3,_RNvMsf_NtCscGbmKBa7Tyy_12gigastt_core9inferenceNtB5_19TranscriptAssembler3new
FNDA:2,_RNvMsf_NtCscGbmKBa7Tyy_12gigastt_core9inferenceNtB5_19TranscriptAssembler6append
FNDA:1,_RNvMsf_NtCscGbmKBa7Tyy_12gigastt_core9inferenceNtB5_19TranscriptAssembler7partial
FNDA:1,_RNvMsf_NtCscGbmKBa7Tyy_12gigastt_core9inferenceNtB5_19TranscriptAssembler8finalize
FNDA:4,_RNvMsf_NtCscGbmKBa7Tyy_12gigastt_core9inferenceNtB5_19TranscriptAssembler8is_empty
FNDA:0,_RNvMsg_NtCscGbmKBa7Tyy_12gigastt_core9inferenceNtB5_6Engine10load_inner
FNDA:0,_RNvMsg_NtCscGbmKBa7Tyy_12gigastt_core9inferenceNtB5_6Engine13load_sessions
FNDA:2,_RNvMsg_NtCscGbmKBa7Tyy_12gigastt_core9inferenceNtB5_6Engine19load_with_pool_size
FNDA:1,_RNvNtCscGbmKBa7Tyy_12gigastt_core9inference13now_timestamp
FNDA:1,_RNvXs_NtCscGbmKBa7Tyy_12gigastt_core9inferenceNtB4_9PoolErrorNtNtCsl8K0bEFm1U0_4core3fmt7Display3fmt
FNDA:1,_RNvXsc_NtCscGbmKBa7Tyy_12gigastt_core9inferenceNtB5_16FeatureExtractorNtNtCsl8K0bEFm1U0_4core7default7Default7default
FNDA:1,_RNvXse_NtCscGbmKBa7Tyy_12gigastt_core9inferenceNtB5_19TranscriptAssemblerNtNtCsl8K0bEFm1U0_4core7default7Default7default
FNDA:0,_RNvXs6_NtCs56NpsMUp9BL_12gigastt_core9inferenceINtB5_9PoolGuardNtB5_14SessionTripletENtNtNtCsl8K0bEFm1U0_4core3ops4drop4Drop4dropCs6e09oN0mRLy_11gigastt_ffi
FNDA:0,_RNvXsa_NtCs56NpsMUp9BL_12gigastt_core9inferenceINtB5_16OwnedReservationNtB5_14SessionTripletENtNtNtCsl8K0bEFm1U0_4core3ops4drop4Drop4dropCs6e09oN0mRLy_11gigastt_ffi
FNDA:0,_RNCNvMs3_NtCs56NpsMUp9BL_12gigastt_core9inferenceINtB7_9PoolGuardNtB7_14SessionTripletE10into_owned0Cs6e09oN0mRLy_11gigastt_ffi
FNDA:0,_RNCNvXs5_NtCs56NpsMUp9BL_12gigastt_core9inferenceINtB7_9PoolGuardNtB7_14SessionTripletENtNtNtCsl8K0bEFm1U0_4core3ops5deref8DerefMut9deref_mut0Cs6e09oN0mRLy_11gigastt_ffi
FNDA:0,_RNCNvXs8_NtCs56NpsMUp9BL_12gigastt_core9inferenceINtB7_16OwnedReservationNtB7_14SessionTripletENtNtNtCsl8K0bEFm1U0_4core3ops5deref8DerefMut9deref_mut0Cs6e09oN0mRLy_11gigastt_ffi
FNDA:0,_RNvMs1_NtCs56NpsMUp9BL_12gigastt_core9inferenceINtB5_4PoolNtB5_14SessionTripletE17checkout_blockingCs6e09oN0mRLy_11gigastt_ffi
FNDA:0,_RNvMs2_NtCs56NpsMUp9BL_12gigastt_core9inferenceINtB5_9PoolInnerNtB5_14SessionTripletE7checkinCs6e09oN0mRLy_11gigastt_ffi
FNDA:0,_RNvMs3_NtCs56NpsMUp9BL_12gigastt_core9inferenceINtB5_9PoolGuardNtB5_14SessionTripletE10into_ownedCs6e09oN0mRLy_11gigastt_ffi
FNDA:0,_RNvMs3_NtCs56NpsMUp9BL_12gigastt_core9inferenceINtB5_9PoolGuardNtB5_14SessionTripletE3newCs6e09oN0mRLy_11gigastt_ffi
FNDA:0,_RNvMs9_NtCs56NpsMUp9BL_12gigastt_core9inferenceINtB5_16OwnedReservationNtB5_14SessionTripletE7checkinCs6e09oN0mRLy_11gigastt_ffi
FNDA:0,_RNvXs5_NtCs56NpsMUp9BL_12gigastt_core9inferenceINtB5_9PoolGuardNtB5_14SessionTripletENtNtNtCsl8K0bEFm1U0_4core3ops5deref8DerefMut9deref_mutCs6e09oN0mRLy_11gigastt_ffi
FNDA:0,_RNvXs8_NtCs56NpsMUp9BL_12gigastt_core9inferenceINtB5_16OwnedReservationNtB5_14SessionTripletENtNtNtCsl8K0bEFm1U0_4core3ops5deref8DerefMut9deref_mutCs6e09oN0mRLy_11gigastt_ffi
FNF:128
FNH:87
DA:38,0
DA:39,0
DA:40,0
DA:42,0
DA:43,0
DA:44,0
DA:73,1
DA:74,1
DA:75,1
DA:77,1
DA:78,1
DA:79,1
DA:80,0
DA:81,0
DA:82,0
DA:85,1
DA:118,1
DA:119,1
DA:120,1
DA:122,1
DA:158,16
DA:159,16
DA:160,16
DA:161,16
DA:162,16
DA:163,16
DA:164,16
DA:165,16
DA:166,16
DA:167,16
DA:168,16
DA:174,21
DA:177,21
DA:178,21
DA:179,0
DA:180,21
DA:181,21
DA:182,10
DA:183,11
DA:187,11
DA:189,11
DA:190,11
DA:191,0
DA:192,11
DA:197,11
DA:198,11
DA:199,0
DA:200,0
DA:201,0
DA:202,11
DA:203,11
DA:206,11
DA:207,3
DA:208,3
DA:210,16
DA:213,4
DA:216,4
DA:217,4
DA:218,1
DA:219,3
DA:220,3
DA:221,2
DA:222,1
DA:226,1
DA:228,1
DA:229,1
DA:230,0
DA:231,1
DA:233,1
DA:234,1
DA:235,0
DA:236,0
DA:237,0
DA:238,1
DA:239,1
DA:242,1
DA:243,1
DA:244,0
DA:246,4
DA:251,5
DA:252,5
DA:253,5
DA:254,5
DA:256,5
DA:257,5
DA:258,5
DA:261,0
DA:262,0
DA:263,0
DA:266,16
DA:267,16
DA:268,16
DA:269,16
DA:272,7
DA:273,7
DA:274,7
DA:275,7
DA:279,16
DA:280,16
DA:281,0
DA:282,16
DA:289,21
DA:290,21
DA:291,9
DA:292,9
DA:293,8
DA:294,8
DA:295,5
DA:296,5
DA:297,3
DA:299,1
DA:300,1
DA:301,0
DA:302,0
DA:303,1
DA:306,12
DA:307,12
DA:308,12
DA:309,12
DA:310,12
DA:311,16
DA:313,16
DA:327,16
DA:328,16
DA:329,16
DA:330,16
DA:331,16
DA:332,16
DA:339,4
DA:340,4
DA:341,4
DA:342,4
DA:343,4
DA:344,4
DA:345,4
DA:346,4
DA:347,4
DA:348,4
DA:349,4
DA:355,2
DA:356,2
DA:357,2
DA:358,2
DA:359,2
DA:363,0
DA:364,0
DA:365,0
DA:366,0
DA:367,0
DA:371,16
DA:372,16
DA:373,12
DA:374,12
DA:375,16
DA:394,2
DA:395,2
DA:396,2
DA:397,2
DA:398,2
DA:402,1
DA:403,1
DA:404,1
DA:405,1
DA:406,1
DA:412,1
DA:413,1
DA:414,1
DA:415,1
DA:416,1
DA:420,4
DA:421,4
DA:422,3
DA:423,3
DA:424,4
DA:445,3
DA:446,3
DA:447,3
DA:448,3
DA:449,3
DA:450,3
DA:451,3
DA:452,3
DA:516,1
DA:517,1
DA:518,1
DA:523,2
DA:524,2
DA:525,2
DA:526,2
DA:527,2
DA:530,0
DA:531,0
DA:532,0
DA:535,0
DA:536,0
DA:537,0
DA:538,0
DA:539,0
DA:540,0
DA:541,0
DA:542,0
DA:543,0
DA:544,0
DA:547,1
DA:548,1
DA:549,1
DA:563,1
DA:564,1
DA:565,1
DA:570,3
DA:571,3
DA:572,3
DA:573,3
DA:574,3
DA:575,3
DA:578,2
DA:579,3
DA:580,3
DA:581,1
DA:582,2
DA:583,3
DA:585,2
DA:586,2
DA:589,1
DA:590,1
DA:591,1
DA:592,1
DA:593,1
DA:594,1
DA:595,1
DA:596,1
DA:599,1
DA:600,1
DA:601,1
DA:602,1
DA:603,1
DA:604,1
DA:605,1
DA:606,1
DA:609,4
DA:610,4
DA:611,4
DA:646,0
DA:647,0
DA:648,0
DA:653,0
DA:654,0
DA:655,0
DA:666,0
DA:667,0
DA:668,0
DA:671,2
DA:672,2
DA:673,2
DA:674,2
DA:675,2
DA:676,2
DA:677,2
DA:678,0
DA:679,0
DA:680,0
DA:681,0
DA:682,0
DA:683,2
DA:686,0
DA:687,0
DA:688,0
DA:689,0
DA:690,0
DA:691,0
DA:693,0
DA:778,0
DA:779,0
DA:780,0
DA:781,0
DA:782,0
DA:783,0
DA:784,0
DA:785,0
DA:786,0
DA:787,0
DA:788,0
DA:789,0
DA:790,0
DA:791,0
DA:792,0
DA:793,0
DA:794,0
DA:795,0
DA:796,0
DA:797,0
DA:798,0
DA:799,0
DA:800,0
DA:801,0
DA:802,0
DA:803,0
DA:804,0
DA:805,0
DA:806,0
DA:807,0
DA:808,0
DA:809,0
DA:810,0
DA:811,0
DA:812,0
DA:813,0
DA:814,0
DA:815,0
DA:816,0
DA:817,0
DA:818,0
DA:819,0
DA:822,0
DA:823,0
DA:825,0
DA:826,0
DA:827,0
DA:828,0
DA:829,0
DA:831,0
DA:838,0
DA:841,0
DA:843,0
DA:844,0
DA:845,0
DA:846,0
DA:847,0
DA:848,0
DA:849,0
DA:851,0
DA:853,0
DA:854,0
DA:855,0
DA:856,0
DA:857,0
DA:858,0
DA:859,0
DA:860,0
DA:861,0
DA:862,0
DA:863,0
DA:864,0
DA:865,0
DA:866,0
DA:867,0
DA:868,0
DA:869,0
DA:870,0
DA:871,0
DA:873,0
DA:874,0
DA:876,0
DA:878,0
DA:882,0
DA:883,0
DA:884,0
DA:885,0
DA:886,0
DA:887,0
DA:888,0
DA:889,0
DA:890,0
DA:891,0
DA:892,0
DA:893,0
DA:895,0
DA:896,0
DA:899,0
DA:903,0
DA:904,0
DA:908,0
DA:909,0
DA:910,0
DA:911,0
DA:912,0
DA:913,0
DA:914,0
DA:915,0
DA:916,0
DA:920,0
DA:921,0
DA:922,0
DA:931,0
DA:933,0
DA:934,0
DA:935,0
DA:936,0
DA:937,0
DA:938,0
DA:939,0
DA:940,0
DA:941,0
DA:942,0
DA:943,0
DA:944,0
DA:945,0
DA:946,0
DA:947,0
DA:948,0
DA:949,0
DA:953,0
DA:963,0
DA:964,0
DA:965,0
DA:966,0
DA:967,0
DA:968,0
DA:969,0
DA:970,0
DA:971,0
DA:972,0
DA:973,0
DA:974,0
DA:975,0
DA:976,0
DA:987,0
DA:988,0
DA:989,0
DA:990,0
DA:991,0
DA:992,0
DA:993,0
DA:994,0
DA:995,0
DA:1001,0
DA:1002,0
DA:1004,0
DA:1007,0
DA:1008,0
DA:1009,0
DA:1011,0
DA:1012,0
DA:1014,0
DA:1016,0
DA:1017,0
DA:1018,0
DA:1019,0
DA:1020,0
DA:1021,0
DA:1023,0
DA:1025,0
DA:1026,0
DA:1027,0
DA:1030,0
DA:1031,0
DA:1032,0
DA:1035,0
DA:1036,0
DA:1037,0
DA:1038,0
DA:1039,0
DA:1040,0
DA:1041,0
DA:1043,0
DA:1044,0
DA:1048,0
DA:1049,0
DA:1051,0
DA:1052,0
DA:1053,0
DA:1058,0
DA:1059,0
DA:1060,0
DA:1061,0
DA:1062,0
DA:1063,0
DA:1064,0
DA:1066,0
DA:1067,0
DA:1068,0
DA:1071,0
DA:1073,0
DA:1075,0
DA:1076,0
DA:1077,0
DA:1079,0
DA:1081,0
DA:1084,0
DA:1085,0
DA:1086,0
DA:1087,0
DA:1088,0
DA:1089,0
DA:1100,0
DA:1101,0
DA:1102,0
DA:1103,0
DA:1104,0
DA:1105,0
DA:1106,0
DA:1107,0
DA:1108,0
DA:1109,0
DA:1110,0
DA:1117,0
DA:1118,0
DA:1119,0
DA:1120,0
DA:1121,0
DA:1122,0
DA:1123,0
DA:1133,0
DA:1134,0
DA:1135,0
DA:1136,0
DA:1137,0
DA:1138,0
DA:1139,0
DA:1140,0
DA:1141,0
DA:1142,0
DA:1143,0
DA:1148,0
DA:1149,0
DA:1150,0
DA:1151,0
DA:1152,0
DA:1153,0
DA:1155,0
DA:1156,0
DA:1158,0
DA:1160,0
DA:1161,0
DA:1162,0
DA:1165,0
DA:1166,0
DA:1167,0
DA:1168,0
DA:1169,0
DA:1170,0
DA:1171,0
DA:1172,0
DA:1173,0
DA:1174,0
DA:1175,0
DA:1176,0
DA:1177,0
DA:1178,0
DA:1179,0
DA:1180,0
DA:1183,0
DA:1184,0
DA:1187,0
DA:1189,0
DA:1190,0
DA:1191,0
DA:1192,0
DA:1193,0
DA:1195,0
DA:1196,0
DA:1197,0
DA:1198,0
DA:1199,0
DA:1200,0
DA:1202,0
DA:1203,0
DA:1204,0
DA:1205,0
DA:1206,0
DA:1207,0
DA:1208,0
DA:1209,0
DA:1211,0
DA:1212,0
DA:1213,0
DA:1215,0
DA:1216,0
DA:1217,0
DA:1218,0
DA:1219,0
DA:1220,0
DA:1221,0
DA:1225,0
DA:1226,0
DA:1227,0
DA:1228,0
DA:1229,0
DA:1230,0
DA:1232,0
DA:1234,0
DA:1239,0
DA:1240,0
DA:1241,0
DA:1242,0
DA:1243,0
DA:1244,0
DA:1245,0
DA:1246,0
DA:1247,0
DA:1248,0
DA:1249,0
DA:1254,0
DA:1256,0
DA:1257,0
DA:1258,0
DA:1259,0
DA:1263,0
DA:1264,0
DA:1267,0
DA:1268,0
DA:1269,0
DA:1270,0
DA:1273,0
DA:1274,0
DA:1275,0
DA:1276,0
DA:1277,0
DA:1279,0
DA:1280,0
DA:1281,0
DA:1283,0
DA:1285,0
DA:1286,0
DA:1288,0
DA:1290,0
DA:1291,0
DA:1292,0
DA:1293,0
DA:1294,0
DA:1295,0
DA:1296,0
DA:1297,0
DA:1298,0
DA:1299,0
DA:1300,0
DA:1301,0
DA:1303,0
DA:1304,0
DA:1306,0
DA:1308,0
DA:1309,0
DA:1310,0
DA:1311,0
DA:1312,0
DA:1313,0
DA:1314,0
DA:1315,0
DA:1319,0
DA:1320,0
DA:1321,0
DA:1323,0
DA:1325,0
DA:1326,0
DA:1327,0
DA:1328,0
DA:1329,0
DA:1330,0
DA:1331,0
DA:1332,0
DA:1334,0
DA:1335,0
DA:1367,0
DA:1368,0
DA:1369,0
DA:1370,0
DA:1371,0
DA:1372,0
DA:1373,0
DA:1374,0
DA:1382,1
DA:1383,1
DA:1384,1
DA:1385,320
DA:1386,320
DA:1387,1
DA:1388,1
DA:1391,1
DA:1392,1
DA:1393,1
DA:1394,1
DA:1395,1
DA:1398,1
DA:1399,1
DA:1400,1
DA:1401,1
DA:1404,1
DA:1405,1
DA:1406,1
DA:1409,1
DA:1410,1
DA:1411,1
DA:1412,1
DA:1413,1
DA:1416,1
DA:1417,1
DA:1418,1
DA:1419,1
DA:1420,1
DA:1421,1
DA:1422,1
DA:1425,1
DA:1426,1
DA:1427,1
DA:1428,1
DA:1429,1
DA:1432,1
DA:1433,1
DA:1434,1
DA:1436,1
DA:1437,1
DA:1438,1
DA:1441,1
DA:1442,1
DA:1444,1
DA:1445,1
DA:1446,1
DA:1447,1
DA:1448,1
DA:1451,1
DA:1452,1
DA:1453,1
DA:1456,1
DA:1457,1
DA:1458,1
DA:1459,1
DA:1462,1
DA:1463,1
DA:1464,1
DA:1465,1
DA:1468,1
DA:1469,1
DA:1470,1
DA:1471,1
DA:1472,1
DA:1482,1
DA:1483,1
DA:1484,1
DA:1485,1
DA:1486,1
DA:1487,1
DA:1488,1
DA:1489,1
DA:1490,1
DA:1491,1
DA:1494,1
DA:1497,1
DA:1498,1
DA:1500,1
DA:1501,1
DA:1502,1
DA:1503,1
DA:1504,1
DA:1506,1
DA:1507,1
DA:1510,1
DA:1511,1
DA:1514,1
DA:1519,1
DA:1520,1
DA:1521,1
DA:1522,1
DA:1526,1
DA:1527,1
DA:1529,1
DA:1530,1
DA:1531,1
DA:1534,1
DA:1539,1
DA:1541,1
DA:1542,1
DA:1544,1
DA:1545,1
DA:1546,3
DA:1547,3
DA:1548,3
DA:1549,3
DA:1550,3
DA:1551,3
DA:1552,3
DA:1553,3
DA:1556,3
DA:1560,1
DA:1561,3
DA:1562,3
DA:1565,1
DA:1566,1
DA:1567,1
DA:1570,1
DA:1573,1
DA:1574,1
DA:1575,1
DA:1577,1
DA:1579,1
DA:1580,1
DA:1581,1
DA:1582,1
DA:1583,1
DA:1584,1
DA:1587,1
DA:1588,1
DA:1589,1
DA:1592,1
DA:1595,1
DA:1596,1
DA:1597,1
DA:1599,1
DA:1600,1
DA:1601,1
DA:1603,1
DA:1605,1
DA:1606,1
DA:1607,1
DA:1608,1
DA:1609,1
DA:1610,1
DA:1611,1
DA:1614,1
DA:1616,1
DA:1617,1
DA:1618,1
DA:1620,1
DA:1621,1
DA:1623,1
DA:1624,1
DA:1625,1
DA:1627,1
DA:1628,1
DA:1631,1
DA:1634,1
DA:1635,1
DA:1636,1
DA:1637,1
DA:1640,1
DA:1641,1
DA:1642,1
DA:1643,1
DA:1644,1
DA:1646,1
DA:1647,1
DA:1648,1
DA:1650,1
DA:1651,1
DA:1652,1
DA:1653,1
DA:1654,1
DA:1655,1
DA:1658,1
DA:1662,1
DA:1663,1
DA:1664,1
DA:1666,1
DA:1667,1
DA:1668,1
DA:1669,1
DA:1670,1
DA:1671,1
DA:1672,1
DA:1673,1
DA:1675,1
DA:1676,1
DA:1677,1
DA:1678,1
DA:1679,1
DA:1682,1
DA:1688,1
DA:1689,1
DA:1691,1
DA:1692,1
DA:1693,1
DA:1696,1
DA:1697,1
DA:1698,1
DA:1701,1
DA:1705,1
DA:1707,1
DA:1708,1
DA:1709,1
DA:1712,1
DA:1715,1
DA:1716,1
DA:1718,1
DA:1719,1
DA:1720,1
DA:1722,1
DA:1724,1
DA:1726,1
DA:1727,1
DA:1731,1
DA:1732,1
DA:1735,1
DA:1738,1
DA:1739,1
DA:1741,1
DA:1742,1
DA:1743,3
DA:1744,3
DA:1745,3
DA:1747,3
DA:1749,3
DA:1750,3
DA:1751,3
DA:1754,1
DA:1756,1
DA:1758,1
DA:1759,1
DA:1763,1
DA:1764,1
DA:1767,1
DA:1768,1
DA:1769,1
DA:1770,1
DA:1771,1
DA:1772,1
DA:1773,1
DA:1774,1
DA:1775,1
DA:1776,1
DA:1777,1
DA:1778,1
DA:1779,1
DA:1780,1
DA:1781,1
DA:1782,1
DA:1783,1
DA:1784,1
DA:1786,1
DA:1787,1
DA:1788,1
DA:1789,1
DA:1790,1
DA:1791,1
DA:1793,1
DA:1794,1
DA:1797,1
DA:1798,1
DA:1799,1
DA:1800,1
DA:1801,1
DA:1802,1
DA:1803,1
DA:1804,1
DA:1805,1
DA:1806,1
DA:1807,1
DA:1808,1
DA:1810,1
DA:1811,1
DA:1814,1
DA:1815,1
DA:1816,1
DA:1819,1
DA:1820,1
DA:1821,64
DA:1822,1
DA:1825,1
DA:1826,1
DA:1827,1
DA:1828,1
BRF:0
BRH:0
LF:1008
LH:535
end_of_record
SF:/Users/ekhodzitsky/Documents/personal/gigastt/crates/gigastt-core/src/inference/tokenizer.rs
FN:113,_RNvMNtNtCs56NpsMUp9BL_12gigastt_core9inference9tokenizerNtB2_9Tokenizer6decode
FN:100,_RNvMNtNtCs56NpsMUp9BL_12gigastt_core9inference9tokenizerNtB2_9Tokenizer10token_text
FN:108,_RNvMNtNtCs56NpsMUp9BL_12gigastt_core9inference9tokenizerNtB2_9Tokenizer10vocab_size
FN:12,_RNvMNtNtCs56NpsMUp9BL_12gigastt_core9inference9tokenizerNtB2_9Tokenizer4load
FN:95,_RNvMNtNtCs56NpsMUp9BL_12gigastt_core9inference9tokenizerNtB2_9Tokenizer8blank_id
FN:14,_RNCNvMNtNtCs56NpsMUp9BL_12gigastt_core9inference9tokenizerNtB4_9Tokenizer4load0B8_
FN:52,_RNCNvMNtNtCs56NpsMUp9BL_12gigastt_core9inference9tokenizerNtB4_9Tokenizer4loads0_0B8_
FN:51,_RNCNvMNtNtCs56NpsMUp9BL_12gigastt_core9inference9tokenizerNtB4_9Tokenizer4loads_0B8_
FN:14,_RNCNvMNtNtCscGbmKBa7Tyy_12gigastt_core9inference9tokenizerNtB4_9Tokenizer4load0B8_
FN:52,_RNCNvMNtNtCscGbmKBa7Tyy_12gigastt_core9inference9tokenizerNtB4_9Tokenizer4loads0_0B8_
FN:51,_RNCNvMNtNtCscGbmKBa7Tyy_12gigastt_core9inference9tokenizerNtB4_9Tokenizer4loads_0B8_
FN:100,_RNvMNtNtCscGbmKBa7Tyy_12gigastt_core9inference9tokenizerNtB2_9Tokenizer10token_text
FN:108,_RNvMNtNtCscGbmKBa7Tyy_12gigastt_core9inference9tokenizerNtB2_9Tokenizer10vocab_size
FN:12,_RNvMNtNtCscGbmKBa7Tyy_12gigastt_core9inference9tokenizerNtB2_9Tokenizer4load
FN:113,_RNvMNtNtCscGbmKBa7Tyy_12gigastt_core9inference9tokenizerNtB2_9Tokenizer6decode
FN:95,_RNvMNtNtCscGbmKBa7Tyy_12gigastt_core9inference9tokenizerNtB2_9Tokenizer8blank_id
FN:135,_RNvNtNtNtCscGbmKBa7Tyy_12gigastt_core9inference9tokenizer5tests17create_test_vocab
FN:142,_RNvNtNtNtCscGbmKBa7Tyy_12gigastt_core9inference9tokenizer5testss_15test_load_vocab
FN:150,_RNvNtNtNtCscGbmKBa7Tyy_12gigastt_core9inference9tokenizer5testss_17test_decode_basic
FN:184,_RNvNtNtNtCscGbmKBa7Tyy_12gigastt_core9inference9tokenizer5testss_17test_decode_empty
FN:164,_RNvNtNtNtCscGbmKBa7Tyy_12gigastt_core9inference9tokenizer5testss_23test_decode_unk_skipped
FN:157,_RNvNtNtNtCscGbmKBa7Tyy_12gigastt_core9inference9tokenizer5testss_25test_decode_blank_skipped
FN:171,_RNvNtNtNtCscGbmKBa7Tyy_12gigastt_core9inference9tokenizer5testss_25test_decode_word_boundary
FN:178,_RNvNtNtNtCscGbmKBa7Tyy_12gigastt_core9inference9tokenizer5testss_28test_load_vocab_missing_file
FN:191,_RNvNtNtNtCscGbmKBa7Tyy_12gigastt_core9inference9tokenizer5testss_28test_token_text_out_of_range
FN:198,_RNvNtNtNtCscGbmKBa7Tyy_12gigastt_core9inference9tokenizer5testss_28test_token_text_unk_is_empty
FN:216,_RNvNtNtNtCscGbmKBa7Tyy_12gigastt_core9inference9tokenizer5testss_38test_load_vocab_no_whitespace_fallback
FN:207,_RNvNtNtNtCscGbmKBa7Tyy_12gigastt_core9inference9tokenizer5testss_50test_load_vocab_with_empty_lines_and_bare_integers
FN:224,_RNvNtNtNtCscGbmKBa7Tyy_12gigastt_core9inference9tokenizer5testss_53test_load_vocab_non_numeric_after_whitespace_fallback
FNDA:0,_RNvMNtNtCs56NpsMUp9BL_12gigastt_core9inference9tokenizerNtB2_9Tokenizer6decode
FNDA:0,_RNvMNtNtCs56NpsMUp9BL_12gigastt_core9inference9tokenizerNtB2_9Tokenizer10token_text
FNDA:0,_RNvMNtNtCs56NpsMUp9BL_12gigastt_core9inference9tokenizerNtB2_9Tokenizer10vocab_size
FNDA:0,_RNvMNtNtCs56NpsMUp9BL_12gigastt_core9inference9tokenizerNtB2_9Tokenizer4load
FNDA:0,_RNvMNtNtCs56NpsMUp9BL_12gigastt_core9inference9tokenizerNtB2_9Tokenizer8blank_id
FNDA:0,_RNCNvMNtNtCs56NpsMUp9BL_12gigastt_core9inference9tokenizerNtB4_9Tokenizer4load0B8_
FNDA:0,_RNCNvMNtNtCs56NpsMUp9BL_12gigastt_core9inference9tokenizerNtB4_9Tokenizer4loads0_0B8_
FNDA:0,_RNCNvMNtNtCs56NpsMUp9BL_12gigastt_core9inference9tokenizerNtB4_9Tokenizer4loads_0B8_
FNDA:1,_RNCNvMNtNtCscGbmKBa7Tyy_12gigastt_core9inference9tokenizerNtB4_9Tokenizer4load0B8_
FNDA:0,_RNCNvMNtNtCscGbmKBa7Tyy_12gigastt_core9inference9tokenizerNtB4_9Tokenizer4loads0_0B8_
FNDA:32,_RNCNvMNtNtCscGbmKBa7Tyy_12gigastt_core9inference9tokenizerNtB4_9Tokenizer4loads_0B8_
FNDA:8,_RNvMNtNtCscGbmKBa7Tyy_12gigastt_core9inference9tokenizerNtB2_9Tokenizer10token_text
FNDA:4,_RNvMNtNtCscGbmKBa7Tyy_12gigastt_core9inference9tokenizerNtB2_9Tokenizer10vocab_size
FNDA:12,_RNvMNtNtCscGbmKBa7Tyy_12gigastt_core9inference9tokenizerNtB2_9Tokenizer4load
FNDA:5,_RNvMNtNtCscGbmKBa7Tyy_12gigastt_core9inference9tokenizerNtB2_9Tokenizer6decode
FNDA:1,_RNvMNtNtCscGbmKBa7Tyy_12gigastt_core9inference9tokenizerNtB2_9Tokenizer8blank_id
FNDA:11,_RNvNtNtNtCscGbmKBa7Tyy_12gigastt_core9inference9tokenizer5tests17create_test_vocab
FNDA:1,_RNvNtNtNtCscGbmKBa7Tyy_12gigastt_core9inference9tokenizer5testss_15test_load_vocab
FNDA:1,_RNvNtNtNtCscGbmKBa7Tyy_12gigastt_core9inference9tokenizer5testss_17test_decode_basic
FNDA:1,_RNvNtNtNtCscGbmKBa7Tyy_12gigastt_core9inference9tokenizer5testss_17test_decode_empty
FNDA:1,_RNvNtNtNtCscGbmKBa7Tyy_12gigastt_core9inference9tokenizer5testss_23test_decode_unk_skipped
FNDA:1,_RNvNtNtNtCscGbmKBa7Tyy_12gigastt_core9inference9tokenizer5testss_25test_decode_blank_skipped
FNDA:1,_RNvNtNtNtCscGbmKBa7Tyy_12gigastt_core9inference9tokenizer5testss_25test_decode_word_boundary
FNDA:1,_RNvNtNtNtCscGbmKBa7Tyy_12gigastt_core9inference9tokenizer5testss_28test_load_vocab_missing_file
FNDA:1,_RNvNtNtNtCscGbmKBa7Tyy_12gigastt_core9inference9tokenizer5testss_28test_token_text_out_of_range
FNDA:1,_RNvNtNtNtCscGbmKBa7Tyy_12gigastt_core9inference9tokenizer5testss_28test_token_text_unk_is_empty
FNDA:1,_RNvNtNtNtCscGbmKBa7Tyy_12gigastt_core9inference9tokenizer5testss_38test_load_vocab_no_whitespace_fallback
FNDA:1,_RNvNtNtNtCscGbmKBa7Tyy_12gigastt_core9inference9tokenizer5testss_50test_load_vocab_with_empty_lines_and_bare_integers
FNDA:1,_RNvNtNtNtCscGbmKBa7Tyy_12gigastt_core9inference9tokenizer5testss_53test_load_vocab_non_numeric_after_whitespace_fallback
FNF:21
FNH:20
DA:12,12
DA:13,12
DA:14,12
DA:16,11
DA:18,35
DA:19,35
DA:20,2
DA:21,33
DA:26,33
DA:27,1
DA:28,32
DA:30,32
DA:32,31
DA:33,31
DA:34,30
DA:36,1
DA:39,1
DA:41,32
DA:44,11
DA:45,11
DA:47,0
DA:49,11
DA:50,11
DA:51,32
DA:52,11
DA:54,11
DA:56,0
DA:60,11
DA:61,12
DA:95,1
DA:96,1
DA:97,1
DA:100,8
DA:101,8
DA:102,1
DA:103,7
DA:104,7
DA:105,7
DA:106,8
DA:108,4
DA:109,4
DA:110,4
DA:113,5
DA:114,5
DA:115,9
DA:116,9
DA:117,1
DA:118,8
DA:119,8
DA:120,8
DA:121,1
DA:122,7
DA:123,7
DA:126,5
DA:127,5
DA:135,11
DA:136,11
DA:137,11
DA:138,11
DA:139,11
DA:142,1
DA:143,1
DA:144,1
DA:145,1
DA:146,1
DA:147,1
DA:150,1
DA:151,1
DA:152,1
DA:153,1
DA:154,1
DA:157,1
DA:158,1
DA:159,1
DA:160,1
DA:161,1
DA:164,1
DA:165,1
DA:166,1
DA:167,1
DA:168,1
DA:171,1
DA:172,1
DA:173,1
DA:174,1
DA:175,1
DA:178,1
DA:179,1
DA:180,1
DA:181,1
DA:184,1
DA:185,1
DA:186,1
DA:187,1
DA:188,1
DA:191,1
DA:192,1
DA:193,1
DA:194,1
DA:195,1
DA:198,1
DA:199,1
DA:200,1
DA:201,1
DA:202,1
DA:203,1
DA:204,1
DA:207,1
DA:208,1
DA:209,1
DA:210,1
DA:211,1
DA:212,1
DA:213,1
DA:216,1
DA:217,1
DA:218,1
DA:219,1
DA:220,1
DA:221,1
DA:224,1
DA:225,1
DA:226,1
DA:228,1
DA:229,1
DA:230,1
BRF:0
BRH:0
LF:129
LH:126
end_of_record
SF:/Users/ekhodzitsky/Documents/personal/gigastt/crates/gigastt-core/src/model/mod.rs
FN:284,_RNCNCNvNtCs56NpsMUp9BL_12gigastt_core5model13download_file00B7_
FN:34,_RNCNvMNtCs56NpsMUp9BL_12gigastt_core5modelNtB4_16DownloadProgress6update0B6_
FN:240,_RNCNvNtCs56NpsMUp9BL_12gigastt_core5model11sha256_file0B5_
FN:150,_RNCNvNtCs56NpsMUp9BL_12gigastt_core5model12ensure_model0B5_
FN:279,_RNCNvNtCs56NpsMUp9BL_12gigastt_core5model13download_file0B5_
FN:112,_RNCNvNtCs56NpsMUp9BL_12gigastt_core5model17default_model_dir0B5_
FN:118,_RNCNvNtCs56NpsMUp9BL_12gigastt_core5model17default_model_dirs_0B5_
FN:269,_RNCNvNtCs56NpsMUp9BL_12gigastt_core5model17finalize_download0B5_
FN:213,_RNCNvNtCs56NpsMUp9BL_12gigastt_core5model17model_files_exist0B5_
FN:190,_RNCNvNtCs56NpsMUp9BL_12gigastt_core5model20ensure_speaker_model0B5_
FN:304,_RNCNvNtCs56NpsMUp9BL_12gigastt_core5model31stream_to_partial_then_finalize0B5_
FN:22,_RNvMNtCs56NpsMUp9BL_12gigastt_core5modelNtB2_16DownloadProgress3new
FN:46,_RNvMNtCs56NpsMUp9BL_12gigastt_core5modelNtB2_16DownloadProgress6finish
FN:30,_RNvMNtCs56NpsMUp9BL_12gigastt_core5modelNtB2_16DownloadProgress6update
FN:238,_RNvNtCs56NpsMUp9BL_12gigastt_core5model11sha256_file
FN:150,_RNvNtCs56NpsMUp9BL_12gigastt_core5model12ensure_model
FN:279,_RNvNtCs56NpsMUp9BL_12gigastt_core5model13download_file
FN:110,_RNvNtCs56NpsMUp9BL_12gigastt_core5model17default_model_dir
FN:252,_RNvNtCs56NpsMUp9BL_12gigastt_core5model17finalize_download
FN:212,_RNvNtCs56NpsMUp9BL_12gigastt_core5model17model_files_exist
FN:227,_RNvNtCs56NpsMUp9BL_12gigastt_core5model19partial_path_unique
FN:190,_RNvNtCs56NpsMUp9BL_12gigastt_core5model20ensure_speaker_model
FN:125,_RNvNtCs56NpsMUp9BL_12gigastt_core5model21acquire_download_lock
FN:299,_RNvNtCs56NpsMUp9BL_12gigastt_core5model31stream_to_partial_then_finalize
FN:96,_RNvNtCs56NpsMUp9BL_12gigastt_core5model8home_dir
FN:150,_RNvNtCscGbmKBa7Tyy_12gigastt_core5model12ensure_model
FN:190,_RNvNtCscGbmKBa7Tyy_12gigastt_core5model20ensure_speaker_model
FN:22,_RNvMNtCscGbmKBa7Tyy_12gigastt_core5modelNtB2_16DownloadProgress3new
FN:46,_RNvMNtCscGbmKBa7Tyy_12gigastt_core5modelNtB2_16DownloadProgress6finish
FN:30,_RNvMNtCscGbmKBa7Tyy_12gigastt_core5modelNtB2_16DownloadProgress6update
FN:238,_RNvNtCscGbmKBa7Tyy_12gigastt_core5model11sha256_file
FN:219,_RNvNtCscGbmKBa7Tyy_12gigastt_core5model12partial_path
FN:279,_RNvNtCscGbmKBa7Tyy_12gigastt_core5model13download_file
FN:110,_RNvNtCscGbmKBa7Tyy_12gigastt_core5model17default_model_dir
FN:252,_RNvNtCscGbmKBa7Tyy_12gigastt_core5model17finalize_download
FN:212,_RNvNtCscGbmKBa7Tyy_12gigastt_core5model17model_files_exist
FN:227,_RNvNtCscGbmKBa7Tyy_12gigastt_core5model19partial_path_unique
FN:125,_RNvNtCscGbmKBa7Tyy_12gigastt_core5model21acquire_download_lock
FN:299,_RNvNtCscGbmKBa7Tyy_12gigastt_core5model31stream_to_partial_then_finalize
FN:96,_RNvNtCscGbmKBa7Tyy_12gigastt_core5model8home_dir
FN:387,_RNvNtNtCscGbmKBa7Tyy_12gigastt_core5model5tests10sha256_hex
FN:395,_RNvNtNtCscGbmKBa7Tyy_12gigastt_core5model5tests13stage_partial
FN:350,_RNvNtNtCscGbmKBa7Tyy_12gigastt_core5model5testss_26test_home_dir_returns_some
FN:368,_RNvNtNtCscGbmKBa7Tyy_12gigastt_core5model5testss_28test_download_progress_basic
FN:523,_RNvNtNtCscGbmKBa7Tyy_12gigastt_core5model5testss_31test_speaker_model_sha256_shape
FN:404,_RNvNtNtCscGbmKBa7Tyy_12gigastt_core5model5testss_32test_partial_path_appends_suffix
FN:378,_RNvNtNtCscGbmKBa7Tyy_12gigastt_core5model5testss_33test_download_progress_zero_total
FN:466,_RNvNtNtCscGbmKBa7Tyy_12gigastt_core5model5testss_37test_download_rejects_sha256_mismatch
FN:359,_RNvNtNtCscGbmKBa7Tyy_12gigastt_core5model5testss_39test_default_model_dir_contains_gigastt
FN:507,_RNvNtNtCscGbmKBa7Tyy_12gigastt_core5model5testss_39test_sha256_file_matches_in_memory_hash
FN:415,_RNvNtNtCscGbmKBa7Tyy_12gigastt_core5model5testss_41test_download_writes_partial_then_renames
FN:542,_RNvNtNtCscGbmKBa7Tyy_12gigastt_core5model5testss_42test_speaker_model_rejects_sha256_mismatch
FN:602,_RNvNtNtCscGbmKBa7Tyy_12gigastt_core5model5testss_44test_acquire_download_lock_creates_lock_file
FN:576,_RNvNtNtCscGbmKBa7Tyy_12gigastt_core5model5testss_44test_speaker_model_partial_promoted_on_match
FN:610,_RNvNtNtCscGbmKBa7Tyy_12gigastt_core5model5testss_44test_stream_to_partial_then_finalize_success
FN:636,_RNvNtNtCscGbmKBa7Tyy_12gigastt_core5model5testss_47test_stream_to_partial_then_finalize_http_error
FN:490,_RNvNtNtCscGbmKBa7Tyy_12gigastt_core5model5testss_48test_download_atomic_on_success_without_checksum
FN:593,_RNvNtNtCscGbmKBa7Tyy_12gigastt_core5model5testss_51test_partial_path_unique_contains_pid_and_timestamp
FN:444,_RNvNtNtCscGbmKBa7Tyy_12gigastt_core5model5testss_54test_download_crash_before_rename_leaves_no_final_file
FN:656,_RNvNtNtCscGbmKBa7Tyy_12gigastt_core5model5testss_54test_stream_to_partial_then_finalize_checksum_mismatch
FN:532,_RNCNvNtNtCscGbmKBa7Tyy_12gigastt_core5model5testss_31test_speaker_model_sha256_shape0B7_
FN:610,_RNCNvNtNtCscGbmKBa7Tyy_12gigastt_core5model5testss_44test_stream_to_partial_then_finalize_success0B7_
FN:636,_RNCNvNtNtCscGbmKBa7Tyy_12gigastt_core5model5testss_47test_stream_to_partial_then_finalize_http_error0B7_
FN:656,_RNCNvNtNtCscGbmKBa7Tyy_12gigastt_core5model5testss_54test_stream_to_partial_then_finalize_checksum_mismatch0B7_
FN:284,_RNCNCNvNtCscGbmKBa7Tyy_12gigastt_core5model13download_file00B7_
FN:34,_RNCNvMNtCscGbmKBa7Tyy_12gigastt_core5modelNtB4_16DownloadProgress6update0B6_
FN:240,_RNCNvNtCscGbmKBa7Tyy_12gigastt_core5model11sha256_file0B5_
FN:150,_RNCNvNtCscGbmKBa7Tyy_12gigastt_core5model12ensure_model0B5_
FN:279,_RNCNvNtCscGbmKBa7Tyy_12gigastt_core5model13download_file0B5_
FN:112,_RNCNvNtCscGbmKBa7Tyy_12gigastt_core5model17default_model_dir0B5_
FN:118,_RNCNvNtCscGbmKBa7Tyy_12gigastt_core5model17default_model_dirs_0B5_
FN:269,_RNCNvNtCscGbmKBa7Tyy_12gigastt_core5model17finalize_download0B5_
FN:213,_RNCNvNtCscGbmKBa7Tyy_12gigastt_core5model17model_files_exist0B5_
FN:190,_RNCNvNtCscGbmKBa7Tyy_12gigastt_core5model20ensure_speaker_model0B5_
FN:304,_RNCNvNtCscGbmKBa7Tyy_12gigastt_core5model31stream_to_partial_then_finalize0B5_
FNDA:0,_RNCNCNvNtCs56NpsMUp9BL_12gigastt_core5model13download_file00B7_
FNDA:0,_RNCNvMNtCs56NpsMUp9BL_12gigastt_core5modelNtB4_16DownloadProgress6update0B6_
FNDA:0,_RNCNvNtCs56NpsMUp9BL_12gigastt_core5model11sha256_file0B5_
FNDA:0,_RNCNvNtCs56NpsMUp9BL_12gigastt_core5model12ensure_model0B5_
FNDA:0,_RNCNvNtCs56NpsMUp9BL_12gigastt_core5model13download_file0B5_
FNDA:4,_RNCNvNtCs56NpsMUp9BL_12gigastt_core5model17default_model_dir0B5_
FNDA:0,_RNCNvNtCs56NpsMUp9BL_12gigastt_core5model17default_model_dirs_0B5_
FNDA:0,_RNCNvNtCs56NpsMUp9BL_12gigastt_core5model17finalize_download0B5_
FNDA:0,_RNCNvNtCs56NpsMUp9BL_12gigastt_core5model17model_files_exist0B5_
FNDA:0,_RNCNvNtCs56NpsMUp9BL_12gigastt_core5model20ensure_speaker_model0B5_
FNDA:0,_RNCNvNtCs56NpsMUp9BL_12gigastt_core5model31stream_to_partial_then_finalize0B5_
FNDA:0,_RNvMNtCs56NpsMUp9BL_12gigastt_core5modelNtB2_16DownloadProgress3new
FNDA:0,_RNvMNtCs56NpsMUp9BL_12gigastt_core5modelNtB2_16DownloadProgress6finish
FNDA:0,_RNvMNtCs56NpsMUp9BL_12gigastt_core5modelNtB2_16DownloadProgress6update
FNDA:0,_RNvNtCs56NpsMUp9BL_12gigastt_core5model11sha256_file
FNDA:0,_RNvNtCs56NpsMUp9BL_12gigastt_core5model12ensure_model
FNDA:0,_RNvNtCs56NpsMUp9BL_12gigastt_core5model13download_file
FNDA:4,_RNvNtCs56NpsMUp9BL_12gigastt_core5model17default_model_dir
FNDA:0,_RNvNtCs56NpsMUp9BL_12gigastt_core5model17finalize_download
FNDA:0,_RNvNtCs56NpsMUp9BL_12gigastt_core5model17model_files_exist
FNDA:0,_RNvNtCs56NpsMUp9BL_12gigastt_core5model19partial_path_unique
FNDA:0,_RNvNtCs56NpsMUp9BL_12gigastt_core5model20ensure_speaker_model
FNDA:0,_RNvNtCs56NpsMUp9BL_12gigastt_core5model21acquire_download_lock
FNDA:0,_RNvNtCs56NpsMUp9BL_12gigastt_core5model31stream_to_partial_then_finalize
FNDA:4,_RNvNtCs56NpsMUp9BL_12gigastt_core5model8home_dir
FNDA:0,_RNvNtCscGbmKBa7Tyy_12gigastt_core5model12ensure_model
FNDA:0,_RNvNtCscGbmKBa7Tyy_12gigastt_core5model20ensure_speaker_model
FNDA:4,_RNvMNtCscGbmKBa7Tyy_12gigastt_core5modelNtB2_16DownloadProgress3new
FNDA:4,_RNvMNtCscGbmKBa7Tyy_12gigastt_core5modelNtB2_16DownloadProgress6finish
FNDA:4,_RNvMNtCscGbmKBa7Tyy_12gigastt_core5modelNtB2_16DownloadProgress6update
FNDA:6,_RNvNtCscGbmKBa7Tyy_12gigastt_core5model11sha256_file
FNDA:7,_RNvNtCscGbmKBa7Tyy_12gigastt_core5model12partial_path
FNDA:0,_RNvNtCscGbmKBa7Tyy_12gigastt_core5model13download_file
FNDA:1,_RNvNtCscGbmKBa7Tyy_12gigastt_core5model17default_model_dir
FNDA:7,_RNvNtCscGbmKBa7Tyy_12gigastt_core5model17finalize_download
FNDA:1,_RNvNtCscGbmKBa7Tyy_12gigastt_core5model17model_files_exist
FNDA:4,_RNvNtCscGbmKBa7Tyy_12gigastt_core5model19partial_path_unique
FNDA:1,_RNvNtCscGbmKBa7Tyy_12gigastt_core5model21acquire_download_lock
FNDA:3,_RNvNtCscGbmKBa7Tyy_12gigastt_core5model31stream_to_partial_then_finalize
FNDA:2,_RNvNtCscGbmKBa7Tyy_12gigastt_core5model8home_dir
FNDA:5,_RNvNtNtCscGbmKBa7Tyy_12gigastt_core5model5tests10sha256_hex
FNDA:6,_RNvNtNtCscGbmKBa7Tyy_12gigastt_core5model5tests13stage_partial
FNDA:1,_RNvNtNtCscGbmKBa7Tyy_12gigastt_core5model5testss_26test_home_dir_returns_some
FNDA:1,_RNvNtNtCscGbmKBa7Tyy_12gigastt_core5model5testss_28test_download_progress_basic
FNDA:1,_RNvNtNtCscGbmKBa7Tyy_12gigastt_core5model5testss_31test_speaker_model_sha256_shape
FNDA:1,_RNvNtNtCscGbmKBa7Tyy_12gigastt_core5model5testss_32test_partial_path_appends_suffix
FNDA:1,_RNvNtNtCscGbmKBa7Tyy_12gigastt_core5model5testss_33test_download_progress_zero_total
FNDA:1,_RNvNtNtCscGbmKBa7Tyy_12gigastt_core5model5testss_37test_download_rejects_sha256_mismatch
FNDA:1,_RNvNtNtCscGbmKBa7Tyy_12gigastt_core5model5testss_39test_default_model_dir_contains_gigastt
FNDA:1,_RNvNtNtCscGbmKBa7Tyy_12gigastt_core5model5testss_39test_sha256_file_matches_in_memory_hash
FNDA:1,_RNvNtNtCscGbmKBa7Tyy_12gigastt_core5model5testss_41test_download_writes_partial_then_renames
FNDA:1,_RNvNtNtCscGbmKBa7Tyy_12gigastt_core5model5testss_42test_speaker_model_rejects_sha256_mismatch
FNDA:1,_RNvNtNtCscGbmKBa7Tyy_12gigastt_core5model5testss_44test_acquire_download_lock_creates_lock_file
FNDA:1,_RNvNtNtCscGbmKBa7Tyy_12gigastt_core5model5testss_44test_speaker_model_partial_promoted_on_match
FNDA:1,_RNvNtNtCscGbmKBa7Tyy_12gigastt_core5model5testss_44test_stream_to_partial_then_finalize_success
FNDA:1,_RNvNtNtCscGbmKBa7Tyy_12gigastt_core5model5testss_47test_stream_to_partial_then_finalize_http_error
FNDA:1,_RNvNtNtCscGbmKBa7Tyy_12gigastt_core5model5testss_48test_download_atomic_on_success_without_checksum
FNDA:1,_RNvNtNtCscGbmKBa7Tyy_12gigastt_core5model5testss_51test_partial_path_unique_contains_pid_and_timestamp
FNDA:1,_RNvNtNtCscGbmKBa7Tyy_12gigastt_core5model5testss_54test_download_crash_before_rename_leaves_no_final_file
FNDA:1,_RNvNtNtCscGbmKBa7Tyy_12gigastt_core5model5testss_54test_stream_to_partial_then_finalize_checksum_mismatch
FNDA:64,_RNCNvNtNtCscGbmKBa7Tyy_12gigastt_core5model5testss_31test_speaker_model_sha256_shape0B7_
FNDA:1,_RNCNvNtNtCscGbmKBa7Tyy_12gigastt_core5model5testss_44test_stream_to_partial_then_finalize_success0B7_
FNDA:1,_RNCNvNtNtCscGbmKBa7Tyy_12gigastt_core5model5testss_47test_stream_to_partial_then_finalize_http_error0B7_
FNDA:1,_RNCNvNtNtCscGbmKBa7Tyy_12gigastt_core5model5testss_54test_stream_to_partial_then_finalize_checksum_mismatch0B7_
FNDA:0,_RNCNCNvNtCscGbmKBa7Tyy_12gigastt_core5model13download_file00B7_
FNDA:3,_RNCNvMNtCscGbmKBa7Tyy_12gigastt_core5modelNtB4_16DownloadProgress6update0B6_
FNDA:0,_RNCNvNtCscGbmKBa7Tyy_12gigastt_core5model11sha256_file0B5_
FNDA:0,_RNCNvNtCscGbmKBa7Tyy_12gigastt_core5model12ensure_model0B5_
FNDA:0,_RNCNvNtCscGbmKBa7Tyy_12gigastt_core5model13download_file0B5_
FNDA:1,_RNCNvNtCscGbmKBa7Tyy_12gigastt_core5model17default_model_dir0B5_
FNDA:0,_RNCNvNtCscGbmKBa7Tyy_12gigastt_core5model17default_model_dirs_0B5_
FNDA:0,_RNCNvNtCscGbmKBa7Tyy_12gigastt_core5model17finalize_download0B5_
FNDA:1,_RNCNvNtCscGbmKBa7Tyy_12gigastt_core5model17model_files_exist0B5_
FNDA:0,_RNCNvNtCscGbmKBa7Tyy_12gigastt_core5model20ensure_speaker_model0B5_
FNDA:3,_RNCNvNtCscGbmKBa7Tyy_12gigastt_core5model31stream_to_partial_then_finalize0B5_
FNF:50
FNH:40
DA:22,4
DA:23,4
DA:24,4
DA:25,4
DA:26,4
DA:27,4
DA:28,4
DA:30,4
DA:31,4
DA:32,4
DA:33,4
DA:34,4
DA:35,4
DA:36,4
DA:37,3
DA:38,3
DA:39,3
DA:40,3
DA:41,3
DA:42,3
DA:43,3
DA:44,4
DA:46,4
DA:47,4
DA:49,4
DA:51,4
DA:96,6
DA:99,6
DA:105,6
DA:110,5
DA:111,5
DA:112,5
DA:113,5
DA:114,5
DA:115,5
DA:116,5
DA:117,5
DA:118,5
DA:119,5
DA:125,1
DA:126,1
DA:127,1
DA:128,1
DA:129,1
DA:130,1
DA:131,1
DA:132,1
DA:133,1
DA:138,1
DA:139,1
DA:140,0
DA:141,1
DA:142,1
DA:143,1
DA:150,0
DA:151,0
DA:153,0
DA:154,0
DA:155,0
DA:156,0
DA:160,0
DA:163,0
DA:167,0
DA:168,0
DA:169,0
DA:170,0
DA:172,0
DA:174,0
DA:175,0
DA:178,0
DA:179,0
DA:180,0
DA:190,0
DA:191,0
DA:192,0
DA:194,0
DA:195,0
DA:196,0
DA:197,0
DA:199,0
DA:200,0
DA:202,0
DA:203,0
DA:204,0
DA:205,0
DA:206,0
DA:207,0
DA:208,0
DA:209,0
DA:210,0
DA:212,1
DA:213,1
DA:214,1
DA:219,7
DA:220,7
DA:221,7
DA:222,7
DA:223,7
DA:227,4
DA:228,4
DA:229,4
DA:230,4
DA:231,4
DA:232,4
DA:233,4
DA:234,4
DA:235,4
DA:238,6
DA:239,6
DA:240,6
DA:241,6
DA:242,6
DA:243,6
DA:244,6
DA:252,7
DA:253,7
DA:254,7
DA:255,7
DA:256,7
DA:257,7
DA:258,7
DA:259,5
DA:260,5
DA:263,3
DA:264,3
DA:265,2
DA:266,2
DA:267,2
DA:269,4
DA:270,0
DA:272,0
DA:273,0
DA:275,0
DA:276,4
DA:277,7
DA:279,0
DA:280,0
DA:281,0
DA:282,0
DA:283,0
DA:284,0
DA:285,0
DA:286,0
DA:287,0
DA:299,3
DA:300,3
DA:301,3
DA:302,3
DA:303,3
DA:304,3
DA:305,3
DA:307,3
DA:309,3
DA:310,3
DA:311,3
DA:312,1
DA:313,2
DA:314,2
DA:316,2
DA:318,2
DA:319,2
DA:320,2
DA:321,2
DA:323,2
DA:324,4
DA:325,2
DA:326,2
DA:327,2
DA:328,2
DA:329,2
DA:330,2
DA:333,2
DA:334,2
DA:335,2
DA:336,2
DA:338,2
DA:339,1
DA:341,1
DA:342,3
DA:350,1
DA:352,1
DA:353,1
DA:356,1
DA:359,1
DA:360,1
DA:361,1
DA:362,1
DA:365,1
DA:368,1
DA:369,1
DA:371,1
DA:372,1
DA:373,1
DA:374,1
DA:375,1
DA:378,1
DA:379,1
DA:381,1
DA:382,1
DA:383,1
DA:384,1
DA:387,5
DA:388,5
DA:389,5
DA:390,5
DA:391,5
DA:395,6
DA:396,6
DA:397,6
DA:398,6
DA:399,6
DA:400,6
DA:401,6
DA:404,1
DA:405,1
DA:406,1
DA:408,1
DA:410,1
DA:415,1
DA:416,1
DA:417,1
DA:418,1
DA:419,1
DA:421,1
DA:422,1
DA:423,1
DA:425,1
DA:426,1
DA:428,1
DA:429,1
DA:432,1
DA:433,1
DA:436,1
DA:437,1
DA:444,1
DA:445,1
DA:446,1
DA:447,1
DA:449,1
DA:450,1
DA:451,1
DA:457,1
DA:458,1
DA:461,1
DA:466,1
DA:467,1
DA:468,1
DA:469,1
DA:471,1
DA:473,1
DA:475,1
DA:476,1
DA:477,1
DA:478,1
DA:480,1
DA:481,1
DA:482,1
DA:485,1
DA:490,1
DA:491,1
DA:492,1
DA:493,1
DA:495,1
DA:497,1
DA:498,1
DA:500,1
DA:501,1
DA:502,1
DA:503,1
DA:507,1
DA:508,1
DA:509,1
DA:510,1
DA:511,1
DA:513,1
DA:514,1
DA:515,1
DA:516,1
DA:523,1
DA:524,1
DA:525,1
DA:529,1
DA:530,1
DA:531,1
DA:532,64
DA:535,1
DA:542,1
DA:543,1
DA:544,1
DA:546,1
DA:548,1
DA:549,1
DA:550,1
DA:551,1
DA:552,1
DA:554,1
DA:555,1
DA:556,1
DA:560,1
DA:561,1
DA:564,1
DA:565,1
DA:568,1
DA:576,1
DA:577,1
DA:578,1
DA:579,1
DA:580,1
DA:582,1
DA:584,1
DA:585,1
DA:587,1
DA:588,1
DA:589,1
DA:590,1
DA:593,1
DA:594,1
DA:595,1
DA:596,1
DA:597,1
DA:598,1
DA:602,1
DA:603,1
DA:604,1
DA:605,1
DA:606,1
DA:607,1
DA:610,1
DA:611,1
DA:612,1
DA:613,1
DA:614,1
DA:615,1
DA:616,1
DA:617,1
DA:618,1
DA:619,1
DA:620,1
DA:621,1
DA:623,1
DA:624,1
DA:625,1
DA:627,1
DA:628,1
DA:629,1
DA:631,1
DA:632,1
DA:633,1
DA:636,1
DA:637,1
DA:638,1
DA:639,1
DA:640,1
DA:641,1
DA:642,1
DA:644,1
DA:645,1
DA:646,1
DA:648,1
DA:649,1
DA:650,1
DA:651,1
DA:652,1
DA:653,1
DA:656,1
DA:657,1
DA:658,1
DA:659,1
DA:660,1
DA:661,1
DA:662,1
DA:663,1
DA:665,1
DA:666,1
DA:667,1
DA:668,1
DA:670,1
DA:671,1
DA:672,1
DA:673,1
DA:674,1
DA:675,1
DA:676,1
DA:677,1
DA:678,1
DA:679,1
BRF:0
BRH:0
LF:406
LH:348
end_of_record
SF:/Users/ekhodzitsky/Documents/personal/gigastt/crates/gigastt-core/src/protocol/mod.rs
FN:83,_RNvNtNtCscGbmKBa7Tyy_12gigastt_core8protocol5testss_30test_protocol_version_constant
FN:227,_RNvNtNtCscGbmKBa7Tyy_12gigastt_core8protocol5testss_30test_word_info_speaker_present
FN:251,_RNvNtNtCscGbmKBa7Tyy_12gigastt_core8protocol5testss_31test_configure_sample_rate_only
FN:135,_RNvNtNtCscGbmKBa7Tyy_12gigastt_core8protocol5testss_35test_error_serialization_no_version
FN:121,_RNvNtNtCscGbmKBa7Tyy_12gigastt_core8protocol5testss_35test_final_serialization_no_version
FN:213,_RNvNtNtCscGbmKBa7Tyy_12gigastt_core8protocol5testss_35test_word_info_speaker_none_omitted
FN:166,_RNvNtNtCscGbmKBa7Tyy_12gigastt_core8protocol5testss_36test_client_message_stop_deserialize
FN:307,_RNvNtNtCscGbmKBa7Tyy_12gigastt_core8protocol5testss_36test_ready_diarization_false_omitted
FN:107,_RNvNtNtCscGbmKBa7Tyy_12gigastt_core8protocol5testss_37test_partial_serialization_no_version
FN:241,_RNvNtNtCscGbmKBa7Tyy_12gigastt_core8protocol5testss_38test_configure_diarization_deserialize
FN:280,_RNvNtNtCscGbmKBa7Tyy_12gigastt_core8protocol5testss_38test_configure_protocol_version_absent
FN:198,_RNvNtNtCscGbmKBa7Tyy_12gigastt_core8protocol5testss_40test_ready_empty_supported_rates_omitted
FN:183,_RNvNtNtCscGbmKBa7Tyy_12gigastt_core8protocol5testss_40test_ready_supported_rates_serialization
FN:173,_RNvNtNtCscGbmKBa7Tyy_12gigastt_core8protocol5testss_41test_client_message_configure_deserialize
FN:152,_RNvNtNtCscGbmKBa7Tyy_12gigastt_core8protocol5testss_41test_error_serialization_with_retry_after
FN:88,_RNvNtNtCscGbmKBa7Tyy_12gigastt_core8protocol5testss_41test_ready_serialization_includes_version
FN:268,_RNvNtNtCscGbmKBa7Tyy_12gigastt_core8protocol5testss_43test_configure_protocol_version_deserialize
FN:292,_RNvNtNtCscGbmKBa7Tyy_12gigastt_core8protocol5testss_49test_ready_min_protocol_version_omitted_when_none
FNDA:1,_RNvNtNtCscGbmKBa7Tyy_12gigastt_core8protocol5testss_30test_protocol_version_constant
FNDA:1,_RNvNtNtCscGbmKBa7Tyy_12gigastt_core8protocol5testss_30test_word_info_speaker_present
FNDA:1,_RNvNtNtCscGbmKBa7Tyy_12gigastt_core8protocol5testss_31test_configure_sample_rate_only
FNDA:1,_RNvNtNtCscGbmKBa7Tyy_12gigastt_core8protocol5testss_35test_error_serialization_no_version
FNDA:1,_RNvNtNtCscGbmKBa7Tyy_12gigastt_core8protocol5testss_35test_final_serialization_no_version
FNDA:1,_RNvNtNtCscGbmKBa7Tyy_12gigastt_core8protocol5testss_35test_word_info_speaker_none_omitted
FNDA:1,_RNvNtNtCscGbmKBa7Tyy_12gigastt_core8protocol5testss_36test_client_message_stop_deserialize
FNDA:1,_RNvNtNtCscGbmKBa7Tyy_12gigastt_core8protocol5testss_36test_ready_diarization_false_omitted
FNDA:1,_RNvNtNtCscGbmKBa7Tyy_12gigastt_core8protocol5testss_37test_partial_serialization_no_version
FNDA:1,_RNvNtNtCscGbmKBa7Tyy_12gigastt_core8protocol5testss_38test_configure_diarization_deserialize
FNDA:1,_RNvNtNtCscGbmKBa7Tyy_12gigastt_core8protocol5testss_38test_configure_protocol_version_absent
FNDA:1,_RNvNtNtCscGbmKBa7Tyy_12gigastt_core8protocol5testss_40test_ready_empty_supported_rates_omitted
FNDA:1,_RNvNtNtCscGbmKBa7Tyy_12gigastt_core8protocol5testss_40test_ready_supported_rates_serialization
FNDA:1,_RNvNtNtCscGbmKBa7Tyy_12gigastt_core8protocol5testss_41test_client_message_configure_deserialize
FNDA:1,_RNvNtNtCscGbmKBa7Tyy_12gigastt_core8protocol5testss_41test_error_serialization_with_retry_after
FNDA:1,_RNvNtNtCscGbmKBa7Tyy_12gigastt_core8protocol5testss_41test_ready_serialization_includes_version
FNDA:1,_RNvNtNtCscGbmKBa7Tyy_12gigastt_core8protocol5testss_43test_configure_protocol_version_deserialize
FNDA:1,_RNvNtNtCscGbmKBa7Tyy_12gigastt_core8protocol5testss_49test_ready_min_protocol_version_omitted_when_none
FNF:18
FNH:18
DA:83,1
DA:84,1
DA:85,1
DA:88,1
DA:89,1
DA:90,1
DA:91,1
DA:92,1
DA:93,1
DA:94,1
DA:95,1
DA:96,1
DA:97,1
DA:98,1
DA:99,1
DA:100,1
DA:101,1
DA:102,1
DA:103,1
DA:104,1
DA:107,1
DA:108,1
DA:109,1
DA:110,1
DA:111,1
DA:112,1
DA:113,1
DA:114,1
DA:115,1
DA:116,1
DA:117,1
DA:118,1
DA:121,1
DA:122,1
DA:123,1
DA:124,1
DA:125,1
DA:126,1
DA:127,1
DA:128,1
DA:129,1
DA:130,1
DA:131,1
DA:132,1
DA:135,1
DA:136,1
DA:137,1
DA:138,1
DA:139,1
DA:140,1
DA:141,1
DA:142,1
DA:143,1
DA:144,1
DA:145,1
DA:146,1
DA:149,1
DA:152,1
DA:153,1
DA:154,1
DA:155,1
DA:156,1
DA:157,1
DA:158,1
DA:159,1
DA:160,1
DA:161,1
DA:162,1
DA:163,1
DA:166,1
DA:167,1
DA:168,1
DA:169,1
DA:170,1
DA:173,1
DA:174,1
DA:175,1
DA:176,1
DA:177,1
DA:178,0
DA:180,1
DA:183,1
DA:184,1
DA:185,1
DA:186,1
DA:187,1
DA:188,1
DA:189,1
DA:190,1
DA:191,1
DA:192,1
DA:193,1
DA:194,1
DA:195,1
DA:198,1
DA:199,1
DA:200,1
DA:201,1
DA:202,1
DA:203,1
DA:204,1
DA:205,1
DA:206,1
DA:207,1
DA:208,1
DA:209,1
DA:210,1
DA:213,1
DA:214,1
DA:215,1
DA:216,1
DA:217,1
DA:218,1
DA:219,1
DA:220,1
DA:221,1
DA:222,1
DA:223,1
DA:224,1
DA:227,1
DA:228,1
DA:229,1
DA:230,1
DA:231,1
DA:232,1
DA:233,1
DA:234,1
DA:235,1
DA:236,1
DA:237,1
DA:238,1
DA:241,1
DA:242,1
DA:243,1
DA:244,1
DA:245,1
DA:246,0
DA:248,1
DA:251,1
DA:252,1
DA:253,1
DA:254,1
DA:256,1
DA:257,1
DA:260,1
DA:261,1
DA:263,0
DA:265,1
DA:268,1
DA:269,1
DA:270,1
DA:271,1
DA:273,1
DA:274,1
DA:275,0
DA:277,1
DA:280,1
DA:281,1
DA:282,1
DA:283,1
DA:285,1
DA:286,1
DA:287,0
DA:289,1
DA:292,1
DA:293,1
DA:294,1
DA:295,1
DA:296,1
DA:297,1
DA:298,1
DA:299,1
DA:300,1
DA:301,1
DA:302,1
DA:303,1
DA:304,1
DA:307,1
DA:308,1
DA:309,1
DA:310,1
DA:311,1
DA:312,1
DA:313,1
DA:314,1
DA:315,1
DA:316,1
DA:317,1
DA:318,1
DA:319,1
BRF:0
BRH:0
LF:190
LH:185
end_of_record
SF:/Users/ekhodzitsky/Documents/personal/gigastt/crates/gigastt-core/src/quantize.rs
FN:35,_RNvNtCs56NpsMUp9BL_12gigastt_core8quantize14quantize_model
FN:226,_RNvNtCs56NpsMUp9BL_12gigastt_core8quantize18extract_float_data
FN:46,_RNCNvNtCs56NpsMUp9BL_12gigastt_core8quantize14quantize_model0B5_
FN:124,_RNCNvNtCs56NpsMUp9BL_12gigastt_core8quantize14quantize_models0_0B5_
FN:145,_RNCNvNtCs56NpsMUp9BL_12gigastt_core8quantize14quantize_models1_0B5_
FN:163,_RNCNvNtCs56NpsMUp9BL_12gigastt_core8quantize14quantize_models2_0B5_
FN:192,_RNCNvNtCs56NpsMUp9BL_12gigastt_core8quantize14quantize_models3_0B5_
FN:102,_RNCNvNtCs56NpsMUp9BL_12gigastt_core8quantize14quantize_models_0B5_
FN:301,_RNvNtNtCscGbmKBa7Tyy_12gigastt_core8quantize5testss_24test_zero_scale_handling
FN:279,_RNvNtNtCscGbmKBa7Tyy_12gigastt_core8quantize5testss_29test_extract_float_data_empty
FN:469,_RNvNtNtCscGbmKBa7Tyy_12gigastt_core8quantize5testss_34test_quantize_model_shared_weights
FN:288,_RNvNtNtCscGbmKBa7Tyy_12gigastt_core8quantize5testss_34test_symmetric_quantization_values
FN:265,_RNvNtNtCscGbmKBa7Tyy_12gigastt_core8quantize5testss_37test_extract_float_data_from_raw_data
FN:354,_RNvNtNtCscGbmKBa7Tyy_12gigastt_core8quantize5testss_37test_quantize_model_matmul_end_to_end
FN:340,_RNvNtNtCscGbmKBa7Tyy_12gigastt_core8quantize5testss_38test_extract_float_data_raw_misaligned
FN:416,_RNvNtNtCscGbmKBa7Tyy_12gigastt_core8quantize5testss_40test_quantize_model_small_tensor_skipped
FN:310,_RNvNtNtCscGbmKBa7Tyy_12gigastt_core8quantize5testss_42test_roundtrip_encode_decode_minimal_model
FN:254,_RNvNtNtCscGbmKBa7Tyy_12gigastt_core8quantize5testss_45test_extract_float_data_from_float_data_field
FN:304,_RNCNvNtNtCscGbmKBa7Tyy_12gigastt_core8quantize5testss_24test_zero_scale_handling0B7_
FN:470,_RNCNvNtNtCscGbmKBa7Tyy_12gigastt_core8quantize5testss_34test_quantize_model_shared_weights0B7_
FN:526,_RNCNvNtNtCscGbmKBa7Tyy_12gigastt_core8quantize5testss_34test_quantize_model_shared_weightss0_0B7_
FN:519,_RNCNvNtNtCscGbmKBa7Tyy_12gigastt_core8quantize5testss_34test_quantize_model_shared_weightss_0B7_
FN:355,_RNCNvNtNtCscGbmKBa7Tyy_12gigastt_core8quantize5testss_37test_quantize_model_matmul_end_to_end0B7_
FN:402,_RNCNvNtNtCscGbmKBa7Tyy_12gigastt_core8quantize5testss_37test_quantize_model_matmul_end_to_ends0_0B7_
FN:411,_RNCNvNtNtCscGbmKBa7Tyy_12gigastt_core8quantize5testss_37test_quantize_model_matmul_end_to_ends1_0B7_
FN:398,_RNCNvNtNtCscGbmKBa7Tyy_12gigastt_core8quantize5testss_37test_quantize_model_matmul_end_to_ends_0B7_
FN:417,_RNCNvNtNtCscGbmKBa7Tyy_12gigastt_core8quantize5testss_40test_quantize_model_small_tensor_skipped0B7_
FN:464,_RNCNvNtNtCscGbmKBa7Tyy_12gigastt_core8quantize5testss_40test_quantize_model_small_tensor_skippeds0_0B7_
FN:460,_RNCNvNtNtCscGbmKBa7Tyy_12gigastt_core8quantize5testss_40test_quantize_model_small_tensor_skippeds_0B7_
FN:46,_RNCNvNtCscGbmKBa7Tyy_12gigastt_core8quantize14quantize_model0B5_
FN:124,_RNCNvNtCscGbmKBa7Tyy_12gigastt_core8quantize14quantize_models0_0B5_
FN:145,_RNCNvNtCscGbmKBa7Tyy_12gigastt_core8quantize14quantize_models1_0B5_
FN:163,_RNCNvNtCscGbmKBa7Tyy_12gigastt_core8quantize14quantize_models2_0B5_
FN:192,_RNCNvNtCscGbmKBa7Tyy_12gigastt_core8quantize14quantize_models3_0B5_
FN:102,_RNCNvNtCscGbmKBa7Tyy_12gigastt_core8quantize14quantize_models_0B5_
FN:35,_RNvNtCscGbmKBa7Tyy_12gigastt_core8quantize14quantize_model
FN:226,_RNvNtCscGbmKBa7Tyy_12gigastt_core8quantize18extract_float_data
FNDA:0,_RNvNtCs56NpsMUp9BL_12gigastt_core8quantize14quantize_model
FNDA:0,_RNvNtCs56NpsMUp9BL_12gigastt_core8quantize18extract_float_data
FNDA:0,_RNCNvNtCs56NpsMUp9BL_12gigastt_core8quantize14quantize_model0B5_
FNDA:0,_RNCNvNtCs56NpsMUp9BL_12gigastt_core8quantize14quantize_models0_0B5_
FNDA:0,_RNCNvNtCs56NpsMUp9BL_12gigastt_core8quantize14quantize_models1_0B5_
FNDA:0,_RNCNvNtCs56NpsMUp9BL_12gigastt_core8quantize14quantize_models2_0B5_
FNDA:0,_RNCNvNtCs56NpsMUp9BL_12gigastt_core8quantize14quantize_models3_0B5_
FNDA:0,_RNCNvNtCs56NpsMUp9BL_12gigastt_core8quantize14quantize_models_0B5_
FNDA:1,_RNvNtNtCscGbmKBa7Tyy_12gigastt_core8quantize5testss_24test_zero_scale_handling
FNDA:1,_RNvNtNtCscGbmKBa7Tyy_12gigastt_core8quantize5testss_29test_extract_float_data_empty
FNDA:1,_RNvNtNtCscGbmKBa7Tyy_12gigastt_core8quantize5testss_34test_quantize_model_shared_weights
FNDA:1,_RNvNtNtCscGbmKBa7Tyy_12gigastt_core8quantize5testss_34test_symmetric_quantization_values
FNDA:1,_RNvNtNtCscGbmKBa7Tyy_12gigastt_core8quantize5testss_37test_extract_float_data_from_raw_data
FNDA:1,_RNvNtNtCscGbmKBa7Tyy_12gigastt_core8quantize5testss_37test_quantize_model_matmul_end_to_end
FNDA:1,_RNvNtNtCscGbmKBa7Tyy_12gigastt_core8quantize5testss_38test_extract_float_data_raw_misaligned
FNDA:1,_RNvNtNtCscGbmKBa7Tyy_12gigastt_core8quantize5testss_40test_quantize_model_small_tensor_skipped
FNDA:1,_RNvNtNtCscGbmKBa7Tyy_12gigastt_core8quantize5testss_42test_roundtrip_encode_decode_minimal_model
FNDA:1,_RNvNtNtCscGbmKBa7Tyy_12gigastt_core8quantize5testss_45test_extract_float_data_from_float_data_field
FNDA:100,_RNCNvNtNtCscGbmKBa7Tyy_12gigastt_core8quantize5testss_24test_zero_scale_handling0B7_
FNDA:1024,_RNCNvNtNtCscGbmKBa7Tyy_12gigastt_core8quantize5testss_34test_quantize_model_shared_weights0B7_
FNDA:3,_RNCNvNtNtCscGbmKBa7Tyy_12gigastt_core8quantize5testss_34test_quantize_model_shared_weightss0_0B7_
FNDA:3,_RNCNvNtNtCscGbmKBa7Tyy_12gigastt_core8quantize5testss_34test_quantize_model_shared_weightss_0B7_
FNDA:1024,_RNCNvNtNtCscGbmKBa7Tyy_12gigastt_core8quantize5testss_37test_quantize_model_matmul_end_to_end0B7_
FNDA:3,_RNCNvNtNtCscGbmKBa7Tyy_12gigastt_core8quantize5testss_37test_quantize_model_matmul_end_to_ends0_0B7_
FNDA:2,_RNCNvNtNtCscGbmKBa7Tyy_12gigastt_core8quantize5testss_37test_quantize_model_matmul_end_to_ends1_0B7_
FNDA:2,_RNCNvNtNtCscGbmKBa7Tyy_12gigastt_core8quantize5testss_37test_quantize_model_matmul_end_to_ends_0B7_
FNDA:256,_RNCNvNtNtCscGbmKBa7Tyy_12gigastt_core8quantize5testss_40test_quantize_model_small_tensor_skipped0B7_
FNDA:1,_RNCNvNtNtCscGbmKBa7Tyy_12gigastt_core8quantize5testss_40test_quantize_model_small_tensor_skippeds0_0B7_
FNDA:1,_RNCNvNtNtCscGbmKBa7Tyy_12gigastt_core8quantize5testss_40test_quantize_model_small_tensor_skippeds_0B7_
FNDA:3,_RNCNvNtCscGbmKBa7Tyy_12gigastt_core8quantize14quantize_model0B5_
FNDA:2048,_RNCNvNtCscGbmKBa7Tyy_12gigastt_core8quantize14quantize_models0_0B5_
FNDA:2048,_RNCNvNtCscGbmKBa7Tyy_12gigastt_core8quantize14quantize_models1_0B5_
FNDA:64,_RNCNvNtCscGbmKBa7Tyy_12gigastt_core8quantize14quantize_models2_0B5_
FNDA:3,_RNCNvNtCscGbmKBa7Tyy_12gigastt_core8quantize14quantize_models3_0B5_
FNDA:4,_RNCNvNtCscGbmKBa7Tyy_12gigastt_core8quantize14quantize_models_0B5_
FNDA:3,_RNvNtCscGbmKBa7Tyy_12gigastt_core8quantize14quantize_model
FNDA:6,_RNvNtCscGbmKBa7Tyy_12gigastt_core8quantize18extract_float_data
FNF:29
FNH:29
DA:35,3
DA:36,3
DA:37,3
DA:38,3
DA:39,3
DA:42,3
DA:43,3
DA:44,3
DA:45,3
DA:46,3
DA:47,3
DA:50,3
DA:51,4
DA:52,4
DA:53,0
DA:54,4
DA:56,8
DA:57,8
DA:58,4
DA:59,4
DA:60,4
DA:61,4
DA:62,4
DA:63,0
DA:64,4
DA:65,4
DA:66,4
DA:67,3
DA:68,3
DA:69,0
DA:73,3
DA:75,0
DA:76,0
DA:80,3
DA:81,3
DA:82,3
DA:84,3
DA:86,3
DA:87,1
DA:88,2
DA:90,2
DA:91,2
DA:92,2
DA:94,2
DA:95,0
DA:96,2
DA:98,2
DA:99,2
DA:100,0
DA:101,2
DA:102,4
DA:103,2
DA:104,0
DA:106,0
DA:108,0
DA:110,0
DA:111,2
DA:112,2
DA:115,2
DA:116,2
DA:117,2
DA:119,64
DA:120,64
DA:121,64
DA:122,64
DA:124,2048
DA:125,64
DA:126,64
DA:128,2048
DA:129,2048
DA:130,2048
DA:131,2048
DA:135,2
DA:136,2
DA:137,2
DA:138,2
DA:141,2
DA:142,2
DA:143,2
DA:144,2
DA:145,2048
DA:146,2
DA:150,2
DA:151,2
DA:152,2
DA:153,2
DA:154,2
DA:155,2
DA:156,2
DA:159,2
DA:160,2
DA:161,2
DA:162,2
DA:163,64
DA:164,2
DA:168,2
DA:169,2
DA:170,2
DA:171,2
DA:172,2
DA:173,2
DA:174,2
DA:175,2
DA:176,2
DA:177,2
DA:178,2
DA:179,2
DA:180,2
DA:184,3
DA:185,3
DA:186,3
DA:187,3
DA:190,3
DA:191,3
DA:192,3
DA:195,3
DA:198,3
DA:199,3
DA:200,3
DA:205,3
DA:206,3
DA:207,3
DA:208,3
DA:209,3
DA:210,3
DA:211,3
DA:212,3
DA:213,3
DA:215,3
DA:216,3
DA:217,3
DA:219,0
DA:222,3
DA:223,3
DA:226,6
DA:227,6
DA:228,3
DA:229,3
DA:230,3
DA:231,2
DA:233,2
DA:234,2
DA:236,1
DA:237,1
DA:239,1
DA:240,1
DA:241,2
DA:242,2
DA:243,2
DA:244,1
DA:245,1
DA:246,1
DA:247,6
DA:254,1
DA:255,1
DA:256,1
DA:257,1
DA:258,1
DA:259,1
DA:260,1
DA:261,1
DA:262,1
DA:265,1
DA:266,1
DA:267,1
DA:268,1
DA:269,1
DA:270,1
DA:271,1
DA:272,1
DA:273,1
DA:274,1
DA:275,1
DA:276,1
DA:279,1
DA:280,1
DA:281,1
DA:282,1
DA:283,1
DA:284,1
DA:285,1
DA:288,1
DA:290,1
DA:291,1
DA:292,1
DA:293,1
DA:295,1
DA:296,1
DA:297,1
DA:298,1
DA:301,1
DA:303,1
DA:304,100
DA:305,1
DA:306,1
DA:307,1
DA:310,1
DA:313,1
DA:314,1
DA:315,1
DA:316,1
DA:317,1
DA:318,1
DA:319,1
DA:320,1
DA:321,1
DA:322,1
DA:323,1
DA:324,1
DA:325,1
DA:326,1
DA:327,1
DA:328,1
DA:329,1
DA:330,1
DA:331,1
DA:332,1
DA:333,1
DA:334,1
DA:335,1
DA:336,1
DA:337,1
DA:340,1
DA:341,1
DA:342,1
DA:343,1
DA:344,1
DA:345,1
DA:346,1
DA:347,1
DA:348,1
DA:351,1
DA:354,1
DA:355,1024
DA:356,1
DA:357,1
DA:358,1
DA:359,1
DA:360,1
DA:361,1
DA:362,1
DA:363,1
DA:364,1
DA:365,1
DA:366,1
DA:367,1
DA:368,1
DA:369,1
DA:370,1
DA:371,1
DA:372,1
DA:373,1
DA:374,1
DA:375,1
DA:376,1
DA:377,1
DA:378,1
DA:379,1
DA:381,1
DA:382,1
DA:383,1
DA:385,1
DA:386,1
DA:387,1
DA:389,1
DA:391,1
DA:392,1
DA:393,1
DA:395,1
DA:396,1
DA:397,1
DA:398,2
DA:399,1
DA:400,1
DA:402,3
DA:403,1
DA:404,1
DA:407,1
DA:408,1
DA:409,1
DA:411,2
DA:412,1
DA:413,1
DA:416,1
DA:417,256
DA:418,1
DA:419,1
DA:420,1
DA:421,1
DA:422,1
DA:423,1
DA:424,1
DA:425,1
DA:426,1
DA:427,1
DA:428,1
DA:429,1
DA:430,1
DA:431,1
DA:432,1
DA:433,1
DA:434,1
DA:435,1
DA:436,1
DA:437,1
DA:438,1
DA:439,1
DA:440,1
DA:441,1
DA:443,1
DA:444,1
DA:445,1
DA:447,1
DA:448,1
DA:449,1
DA:451,1
DA:453,1
DA:454,1
DA:455,1
DA:457,1
DA:458,1
DA:459,1
DA:460,1
DA:461,1
DA:462,1
DA:464,1
DA:465,1
DA:466,1
DA:469,1
DA:470,1024
DA:471,1
DA:472,1
DA:473,1
DA:474,1
DA:475,1
DA:476,1
DA:477,1
DA:478,1
DA:479,1
DA:480,1
DA:481,1
DA:482,1
DA:483,1
DA:484,1
DA:485,1
DA:486,1
DA:487,1
DA:488,1
DA:489,1
DA:490,1
DA:491,1
DA:492,1
DA:493,1
DA:494,1
DA:495,1
DA:496,1
DA:497,1
DA:498,1
DA:499,1
DA:500,1
DA:502,1
DA:503,1
DA:504,1
DA:506,1
DA:507,1
DA:508,1
DA:510,1
DA:512,1
DA:513,1
DA:514,1
DA:516,1
DA:517,1
DA:518,1
DA:519,3
DA:520,1
DA:521,1
DA:526,3
DA:527,1
DA:528,1
DA:529,1
DA:530,1
BRF:0
BRH:0
LF:398
LH:386
end_of_record
SF:/Users/ekhodzitsky/Documents/personal/gigastt/crates/gigastt-ffi/src/lib.rs
FN:21,_RNvCs6e09oN0mRLy_11gigastt_ffi10to_cstring
FN:237,gigastt_engine_free
FN:55,gigastt_engine_new
FN:70,gigastt_engine_new_with_pool_size
FN:263,gigastt_quantize_model
FN:434,gigastt_stream_flush
FN:468,gigastt_stream_free
FN:315,gigastt_stream_new
FN:354,gigastt_stream_process_chunk
FN:225,gigastt_string_free
FN:114,gigastt_transcribe_file
FN:23,_RNCNvCs6e09oN0mRLy_11gigastt_ffi10to_cstring0B3_
FN:455,_RNCNvCs6e09oN0mRLy_11gigastt_ffi20gigastt_stream_flush0B3_
FN:148,_RNCNvCs6e09oN0mRLy_11gigastt_ffi23gigastt_transcribe_file0B3_
FN:192,_RNCNvCs6e09oN0mRLy_11gigastt_ffi23gigastt_transcribe_files_0B3_
FN:381,_RNCNvCs6e09oN0mRLy_11gigastt_ffi28gigastt_stream_process_chunk0B3_
FN:400,_RNCNvCs6e09oN0mRLy_11gigastt_ffi28gigastt_stream_process_chunks0_0B3_
FN:418,_RNCNvCs6e09oN0mRLy_11gigastt_ffi28gigastt_stream_process_chunks1_0B3_
FN:383,_RNCNvCs6e09oN0mRLy_11gigastt_ffi28gigastt_stream_process_chunks_0B3_
FN:502,_RNvNtCs6e09oN0mRLy_11gigastt_ffi5tests17generate_test_wav
FN:484,_RNvNtCs6e09oN0mRLy_11gigastt_ffi5tests18shared_test_engine
FN:575,_RNvNtCs6e09oN0mRLy_11gigastt_ffi5testss_20test_engine_new_null
FN:588,_RNvNtCs6e09oN0mRLy_11gigastt_ffi5testss_21test_engine_free_null
FN:550,_RNvNtCs6e09oN0mRLy_11gigastt_ffi5testss_21test_stream_free_null
FN:737,_RNvNtCs6e09oN0mRLy_11gigastt_ffi5testss_21test_string_free_null
FN:606,_RNvNtCs6e09oN0mRLy_11gigastt_ffi5testss_21test_to_cstring_valid
FN:655,_RNvNtCs6e09oN0mRLy_11gigastt_ffi5testss_23test_stream_new_success
FN:698,_RNvNtCs6e09oN0mRLy_11gigastt_ffi5testss_25test_stream_flush_success
FN:544,_RNvNtCs6e09oN0mRLy_11gigastt_ffi5testss_27test_stream_flush_null_args
FN:530,_RNvNtCs6e09oN0mRLy_11gigastt_ffi5testss_27test_stream_new_null_engine
FN:581,_RNvNtCs6e09oN0mRLy_11gigastt_ffi5testss_28test_engine_new_invalid_utf8
FN:556,_RNvNtCs6e09oN0mRLy_11gigastt_ffi5testss_28test_quantize_model_null_dir
FN:637,_RNvNtCs6e09oN0mRLy_11gigastt_ffi5testss_28test_transcribe_file_success
FN:727,_RNvNtCs6e09oN0mRLy_11gigastt_ffi5testss_30test_quantize_model_idempotent
FN:600,_RNvNtCs6e09oN0mRLy_11gigastt_ffi5testss_30test_transcribe_file_null_file
FN:565,_RNvNtCs6e09oN0mRLy_11gigastt_ffi5testss_32test_quantize_model_invalid_utf8
FN:593,_RNvNtCs6e09oN0mRLy_11gigastt_ffi5testss_32test_transcribe_file_null_engine
FN:664,_RNvNtCs6e09oN0mRLy_11gigastt_ffi5testss_33test_stream_process_chunk_success
FN:612,_RNvNtCs6e09oN0mRLy_11gigastt_ffi5testss_33test_to_cstring_with_nul_fallback
FN:682,_RNvNtCs6e09oN0mRLy_11gigastt_ffi5testss_34test_stream_process_chunk_resample
FN:536,_RNvNtCs6e09oN0mRLy_11gigastt_ffi5testss_35test_stream_process_chunk_null_args
FN:718,_RNvNtCs6e09oN0mRLy_11gigastt_ffi5testss_38test_engine_new_with_pool_size_success
FN:628,_RNvNtCs6e09oN0mRLy_11gigastt_ffi5testss_40test_transcribe_file_parent_dir_rejected
FN:619,_RNvNtCs6e09oN0mRLy_11gigastt_ffi5testss_43test_transcribe_file_absolute_path_rejected
FN:493,_RNCNvNtCs6e09oN0mRLy_11gigastt_ffi5tests18shared_test_engine0B5_
FNDA:4,_RNvCs6e09oN0mRLy_11gigastt_ffi10to_cstring
FNDA:1,gigastt_engine_free
FNDA:2,gigastt_engine_new
FNDA:2,gigastt_engine_new_with_pool_size
FNDA:2,gigastt_quantize_model
FNDA:1,gigastt_stream_flush
FNDA:1,gigastt_stream_free
FNDA:1,gigastt_stream_new
FNDA:1,gigastt_stream_process_chunk
FNDA:3,gigastt_string_free
FNDA:2,gigastt_transcribe_file
FNDA:1,_RNCNvCs6e09oN0mRLy_11gigastt_ffi10to_cstring0B3_
FNDA:0,_RNCNvCs6e09oN0mRLy_11gigastt_ffi20gigastt_stream_flush0B3_
FNDA:0,_RNCNvCs6e09oN0mRLy_11gigastt_ffi23gigastt_transcribe_file0B3_
FNDA:0,_RNCNvCs6e09oN0mRLy_11gigastt_ffi23gigastt_transcribe_files_0B3_
FNDA:0,_RNCNvCs6e09oN0mRLy_11gigastt_ffi28gigastt_stream_process_chunk0B3_
FNDA:0,_RNCNvCs6e09oN0mRLy_11gigastt_ffi28gigastt_stream_process_chunks0_0B3_
FNDA:0,_RNCNvCs6e09oN0mRLy_11gigastt_ffi28gigastt_stream_process_chunks1_0B3_
FNDA:0,_RNCNvCs6e09oN0mRLy_11gigastt_ffi28gigastt_stream_process_chunks_0B3_
FNDA:0,_RNvNtCs6e09oN0mRLy_11gigastt_ffi5tests17generate_test_wav
FNDA:0,_RNvNtCs6e09oN0mRLy_11gigastt_ffi5tests18shared_test_engine
FNDA:1,_RNvNtCs6e09oN0mRLy_11gigastt_ffi5testss_20test_engine_new_null
FNDA:1,_RNvNtCs6e09oN0mRLy_11gigastt_ffi5testss_21test_engine_free_null
FNDA:1,_RNvNtCs6e09oN0mRLy_11gigastt_ffi5testss_21test_stream_free_null
FNDA:1,_RNvNtCs6e09oN0mRLy_11gigastt_ffi5testss_21test_string_free_null
FNDA:1,_RNvNtCs6e09oN0mRLy_11gigastt_ffi5testss_21test_to_cstring_valid
FNDA:0,_RNvNtCs6e09oN0mRLy_11gigastt_ffi5testss_23test_stream_new_success
FNDA:0,_RNvNtCs6e09oN0mRLy_11gigastt_ffi5testss_25test_stream_flush_success
FNDA:1,_RNvNtCs6e09oN0mRLy_11gigastt_ffi5testss_27test_stream_flush_null_args
FNDA:1,_RNvNtCs6e09oN0mRLy_11gigastt_ffi5testss_27test_stream_new_null_engine
FNDA:1,_RNvNtCs6e09oN0mRLy_11gigastt_ffi5testss_28test_engine_new_invalid_utf8
FNDA:1,_RNvNtCs6e09oN0mRLy_11gigastt_ffi5testss_28test_quantize_model_null_dir
FNDA:0,_RNvNtCs6e09oN0mRLy_11gigastt_ffi5testss_28test_transcribe_file_success
FNDA:0,_RNvNtCs6e09oN0mRLy_11gigastt_ffi5testss_30test_quantize_model_idempotent
FNDA:1,_RNvNtCs6e09oN0mRLy_11gigastt_ffi5testss_30test_transcribe_file_null_file
FNDA:1,_RNvNtCs6e09oN0mRLy_11gigastt_ffi5testss_32test_quantize_model_invalid_utf8
FNDA:1,_RNvNtCs6e09oN0mRLy_11gigastt_ffi5testss_32test_transcribe_file_null_engine
FNDA:0,_RNvNtCs6e09oN0mRLy_11gigastt_ffi5testss_33test_stream_process_chunk_success
FNDA:1,_RNvNtCs6e09oN0mRLy_11gigastt_ffi5testss_33test_to_cstring_with_nul_fallback
FNDA:0,_RNvNtCs6e09oN0mRLy_11gigastt_ffi5testss_34test_stream_process_chunk_resample
FNDA:1,_RNvNtCs6e09oN0mRLy_11gigastt_ffi5testss_35test_stream_process_chunk_null_args
FNDA:0,_RNvNtCs6e09oN0mRLy_11gigastt_ffi5testss_38test_engine_new_with_pool_size_success
FNDA:0,_RNvNtCs6e09oN0mRLy_11gigastt_ffi5testss_40test_transcribe_file_parent_dir_rejected
FNDA:0,_RNvNtCs6e09oN0mRLy_11gigastt_ffi5testss_43test_transcribe_file_absolute_path_rejected
FNDA:0,_RNCNvNtCs6e09oN0mRLy_11gigastt_ffi5tests18shared_test_engine0B5_
FNF:45
FNH:26
DA:21,4
DA:22,4
DA:23,4
DA:24,4
DA:55,2
DA:56,2
DA:57,2
DA:70,2
DA:71,2
DA:72,2
DA:73,2
DA:74,2
DA:75,1
DA:76,1
DA:77,1
DA:78,1
DA:80,1
DA:81,0
DA:82,1
DA:83,1
DA:84,1
DA:85,1
DA:89,0
DA:90,0
DA:91,0
DA:92,0
DA:93,0
DA:94,0
DA:95,0
DA:97,0
DA:98,0
DA:99,0
DA:100,0
DA:103,2
DA:114,2
DA:115,2
DA:116,2
DA:117,2
DA:118,2
DA:119,2
DA:120,2
DA:121,2
DA:122,0
DA:123,0
DA:124,0
DA:125,0
DA:126,0
DA:127,0
DA:129,0
DA:130,0
DA:131,0
DA:132,0
DA:133,0
DA:134,0
DA:140,0
DA:141,0
DA:142,0
DA:143,0
DA:144,0
DA:145,0
DA:146,0
DA:147,0
DA:148,0
DA:150,0
DA:151,0
DA:152,0
DA:153,0
DA:154,0
DA:155,0
DA:156,0
DA:157,0
DA:158,0
DA:159,0
DA:162,0
DA:165,0
DA:166,0
DA:167,0
DA:168,0
DA:171,0
DA:172,0
DA:175,0
DA:176,0
DA:177,0
DA:178,0
DA:179,0
DA:181,0
DA:183,0
DA:184,0
DA:185,0
DA:186,0
DA:187,0
DA:188,0
DA:192,0
DA:193,0
DA:194,0
DA:195,0
DA:196,0
DA:197,0
DA:198,0
DA:199,0
DA:202,0
DA:203,0
DA:204,0
DA:208,0
DA:209,0
DA:210,0
DA:211,0
DA:212,0
DA:213,0
DA:216,2
DA:225,3
DA:226,3
DA:227,2
DA:228,2
DA:229,3
DA:237,1
DA:238,1
DA:239,0
DA:240,0
DA:241,0
DA:242,0
DA:243,0
DA:244,1
DA:245,1
DA:263,2
DA:264,2
DA:265,2
DA:266,2
DA:267,2
DA:268,1
DA:269,1
DA:270,1
DA:271,1
DA:273,1
DA:274,0
DA:275,1
DA:276,1
DA:277,1
DA:278,1
DA:279,1
DA:283,0
DA:284,0
DA:285,0
DA:287,0
DA:288,0
DA:289,0
DA:291,0
DA:292,0
DA:293,0
DA:294,0
DA:295,0
DA:296,0
DA:298,0
DA:299,2
DA:315,1
DA:316,1
DA:317,1
DA:318,1
DA:319,1
DA:320,0
DA:322,0
DA:324,0
DA:325,0
DA:326,0
DA:327,0
DA:328,0
DA:329,0
DA:333,0
DA:335,0
DA:337,0
DA:338,0
DA:339,0
DA:340,0
DA:341,0
DA:342,0
DA:343,1
DA:354,1
DA:355,1
DA:356,1
DA:357,1
DA:358,1
DA:359,1
DA:360,1
DA:361,1
DA:362,1
DA:363,1
DA:364,0
DA:365,0
DA:366,0
DA:367,0
DA:368,0
DA:369,0
DA:370,0
DA:371,0
DA:372,0
DA:374,0
DA:375,0
DA:378,0
DA:379,0
DA:380,0
DA:381,0
DA:382,0
DA:383,0
DA:386,0
DA:387,0
DA:388,0
DA:389,0
DA:390,0
DA:391,0
DA:392,0
DA:393,0
DA:394,0
DA:395,0
DA:396,0
DA:397,0
DA:398,0
DA:400,0
DA:401,0
DA:402,0
DA:403,0
DA:404,0
DA:406,0
DA:407,0
DA:408,0
DA:409,0
DA:410,0
DA:413,0
DA:414,0
DA:418,0
DA:419,0
DA:420,0
DA:421,0
DA:423,1
DA:434,1
DA:435,1
DA:436,1
DA:437,1
DA:438,1
DA:439,1
DA:440,1
DA:441,0
DA:442,0
DA:443,0
DA:444,0
DA:445,0
DA:447,0
DA:448,0
DA:450,0
DA:451,0
DA:452,0
DA:453,0
DA:455,0
DA:456,0
DA:457,0
DA:458,0
DA:460,1
DA:468,1
DA:469,1
DA:470,0
DA:471,0
DA:472,0
DA:473,0
DA:474,0
DA:475,0
DA:477,1
DA:478,1
DA:484,0
DA:492,0
DA:493,0
DA:494,0
DA:495,0
DA:496,0
DA:497,0
DA:498,0
DA:500,0
DA:502,0
DA:503,0
DA:504,0
DA:505,0
DA:506,0
DA:507,0
DA:508,0
DA:509,0
DA:510,0
DA:511,0
DA:512,0
DA:513,0
DA:514,0
DA:515,0
DA:516,0
DA:517,0
DA:518,0
DA:519,0
DA:520,0
DA:521,0
DA:522,0
DA:523,0
DA:524,0
DA:525,0
DA:526,0
DA:527,0
DA:530,1
DA:531,1
DA:532,1
DA:533,1
DA:536,1
DA:537,1
DA:538,1
DA:540,1
DA:541,1
DA:544,1
DA:545,1
DA:546,1
DA:547,1
DA:550,1
DA:552,1
DA:553,1
DA:556,1
DA:557,1
DA:558,1
DA:559,1
DA:560,1
DA:561,1
DA:562,1
DA:565,1
DA:566,1
DA:567,1
DA:568,1
DA:569,1
DA:570,1
DA:571,1
DA:572,1
DA:575,1
DA:576,1
DA:577,1
DA:578,1
DA:581,1
DA:582,1
DA:583,1
DA:584,1
DA:585,1
DA:588,1
DA:589,1
DA:590,1
DA:593,1
DA:594,1
DA:595,1
DA:596,1
DA:597,1
DA:600,1
DA:601,1
DA:602,1
DA:603,1
DA:606,1
DA:607,1
DA:608,1
DA:609,1
DA:612,1
DA:613,1
DA:614,1
DA:615,1
DA:619,0
DA:620,0
DA:621,0
DA:622,0
DA:623,0
DA:624,0
DA:628,0
DA:629,0
DA:630,0
DA:631,0
DA:632,0
DA:633,0
DA:637,0
DA:638,0
DA:639,0
DA:640,0
DA:641,0
DA:642,0
DA:643,0
DA:644,0
DA:645,0
DA:646,0
DA:648,0
DA:649,0
DA:650,0
DA:651,0
DA:655,0
DA:656,0
DA:657,0
DA:658,0
DA:659,0
DA:660,0
DA:664,0
DA:665,0
DA:666,0
DA:667,0
DA:669,0
DA:670,0
DA:671,0
DA:673,0
DA:674,0
DA:675,0
DA:676,0
DA:677,0
DA:678,0
DA:682,0
DA:683,0
DA:684,0
DA:685,0
DA:687,0
DA:688,0
DA:689,0
DA:691,0
DA:692,0
DA:693,0
DA:694,0
DA:698,0
DA:699,0
DA:700,0
DA:701,0
DA:702,0
DA:703,0
DA:704,0
DA:706,0
DA:707,0
DA:708,0
DA:709,0
DA:710,0
DA:711,0
DA:712,0
DA:713,0
DA:714,0
DA:718,0
DA:719,0
DA:720,0
DA:721,0
DA:722,0
DA:723,0
DA:727,0
DA:728,0
DA:729,0
DA:730,0
DA:731,0
DA:732,0
DA:733,0
DA:734,0
DA:737,1
DA:738,1
DA:739,1
BRF:0
BRH:0
LF:459
LH:149
end_of_record
SF:/Users/ekhodzitsky/Documents/personal/gigastt/crates/gigastt/src/main.rs
FN:326,_RNCNvCs6AjeNCgbInH_7gigastt4main0B3_
FN:326,_RNvCs6AjeNCgbInH_7gigastt4main
FN:164,_RNvCs6AjeNCgbInH_7gigastt12build_limits
FN:284,_RNvCs6AjeNCgbInH_7gigastt16is_loopback_host
FN:211,_RNvCs6AjeNCgbInH_7gigastt19build_server_config
FN:263,_RNvCs6AjeNCgbInH_7gigastt19ensure_bind_allowed
FN:301,_RNvCs6AjeNCgbInH_7gigastt19ensure_int8_encoder
FN:235,_RNvCs6AjeNCgbInH_7gigastt7log_rss
FN:477,_RNvNtCs6AjeNCgbInH_7gigastt5testss_22test_cli_serve_parsing
FN:639,_RNvNtCs6AjeNCgbInH_7gigastt5testss_24test_build_server_config
FN:495,_RNvNtCs6AjeNCgbInH_7gigastt5testss_25test_cli_download_parsing
FN:506,_RNvNtCs6AjeNCgbInH_7gigastt5testss_25test_cli_quantize_parsing
FN:528,_RNvNtCs6AjeNCgbInH_7gigastt5testss_27test_cli_serve_with_metrics
FN:517,_RNvNtCs6AjeNCgbInH_7gigastt5testss_27test_cli_transcribe_parsing
FN:565,_RNvNtCs6AjeNCgbInH_7gigastt5testss_27test_log_rss_does_not_panic
FN:631,_RNvNtCs6AjeNCgbInH_7gigastt5testss_33test_build_limits_allows_zero_rpm
FN:551,_RNvNtCs6AjeNCgbInH_7gigastt5testss_34test_ensure_int8_encoder_skip_flag
FN:599,_RNvNtCs6AjeNCgbInH_7gigastt5testss_35test_build_limits_applies_overrides
FN:572,_RNvNtCs6AjeNCgbInH_7gigastt5testss_35test_ensure_bind_allowed_env_opt_in
FN:447,_RNvNtCs6AjeNCgbInH_7gigastt5testss_36test_ensure_bind_allowed_loopback_ok
FN:537,_RNvNtCs6AjeNCgbInH_7gigastt5testss_36test_is_loopback_host_ipv6_bracketed
FN:557,_RNvNtCs6AjeNCgbInH_7gigastt5testss_38test_ensure_int8_encoder_missing_input
FN:543,_RNvNtCs6AjeNCgbInH_7gigastt5testss_39test_ensure_int8_encoder_already_exists
FN:592,_RNvNtCs6AjeNCgbInH_7gigastt5testss_41test_build_limits_defaults_when_no_config
FN:472,_RNvNtCs6AjeNCgbInH_7gigastt5testss_41test_ensure_bind_allowed_explicit_flag_ok
FN:435,_RNvNtCs6AjeNCgbInH_7gigastt5testss_45test_is_loopback_host_recognises_common_forms
FN:453,_RNvNtCs6AjeNCgbInH_7gigastt5testss_51test_ensure_bind_allowed_non_loopback_requires_flag
FN:623,_RNvNtCs6AjeNCgbInH_7gigastt5testss_53test_build_limits_rejects_zero_burst_with_nonzero_rpm
FN:268,_RNCNvCs6AjeNCgbInH_7gigastt19ensure_bind_allowed0B3_
FNDA:0,_RNCNvCs6AjeNCgbInH_7gigastt4main0B3_
FNDA:0,_RNvCs6AjeNCgbInH_7gigastt4main
FNDA:4,_RNvCs6AjeNCgbInH_7gigastt12build_limits
FNDA:15,_RNvCs6AjeNCgbInH_7gigastt16is_loopback_host
FNDA:1,_RNvCs6AjeNCgbInH_7gigastt19build_server_config
FNDA:5,_RNvCs6AjeNCgbInH_7gigastt19ensure_bind_allowed
FNDA:3,_RNvCs6AjeNCgbInH_7gigastt19ensure_int8_encoder
FNDA:1,_RNvCs6AjeNCgbInH_7gigastt7log_rss
FNDA:1,_RNvNtCs6AjeNCgbInH_7gigastt5testss_22test_cli_serve_parsing
FNDA:1,_RNvNtCs6AjeNCgbInH_7gigastt5testss_24test_build_server_config
FNDA:1,_RNvNtCs6AjeNCgbInH_7gigastt5testss_25test_cli_download_parsing
FNDA:1,_RNvNtCs6AjeNCgbInH_7gigastt5testss_25test_cli_quantize_parsing
FNDA:1,_RNvNtCs6AjeNCgbInH_7gigastt5testss_27test_cli_serve_with_metrics
FNDA:1,_RNvNtCs6AjeNCgbInH_7gigastt5testss_27test_cli_transcribe_parsing
FNDA:1,_RNvNtCs6AjeNCgbInH_7gigastt5testss_27test_log_rss_does_not_panic
FNDA:1,_RNvNtCs6AjeNCgbInH_7gigastt5testss_33test_build_limits_allows_zero_rpm
FNDA:1,_RNvNtCs6AjeNCgbInH_7gigastt5testss_34test_ensure_int8_encoder_skip_flag
FNDA:1,_RNvNtCs6AjeNCgbInH_7gigastt5testss_35test_build_limits_applies_overrides
FNDA:1,_RNvNtCs6AjeNCgbInH_7gigastt5testss_35test_ensure_bind_allowed_env_opt_in
FNDA:1,_RNvNtCs6AjeNCgbInH_7gigastt5testss_36test_ensure_bind_allowed_loopback_ok
FNDA:1,_RNvNtCs6AjeNCgbInH_7gigastt5testss_36test_is_loopback_host_ipv6_bracketed
FNDA:1,_RNvNtCs6AjeNCgbInH_7gigastt5testss_38test_ensure_int8_encoder_missing_input
FNDA:1,_RNvNtCs6AjeNCgbInH_7gigastt5testss_39test_ensure_int8_encoder_already_exists
FNDA:1,_RNvNtCs6AjeNCgbInH_7gigastt5testss_41test_build_limits_defaults_when_no_config
FNDA:1,_RNvNtCs6AjeNCgbInH_7gigastt5testss_41test_ensure_bind_allowed_explicit_flag_ok
FNDA:1,_RNvNtCs6AjeNCgbInH_7gigastt5testss_45test_is_loopback_host_recognises_common_forms
FNDA:1,_RNvNtCs6AjeNCgbInH_7gigastt5testss_51test_ensure_bind_allowed_non_loopback_requires_flag
FNDA:1,_RNvNtCs6AjeNCgbInH_7gigastt5testss_53test_build_limits_rejects_zero_burst_with_nonzero_rpm
FNDA:2,_RNCNvCs6AjeNCgbInH_7gigastt19ensure_bind_allowed0B3_
FNF:29
FNH:27
DA:164,4
DA:165,4
DA:166,4
DA:167,4
DA:168,4
DA:169,4
DA:170,4
DA:171,4
DA:172,4
DA:173,4
DA:174,4
DA:175,4
DA:176,0
DA:178,4
DA:180,4
DA:181,1
DA:182,3
DA:183,4
DA:184,1
DA:185,3
DA:186,4
DA:187,1
DA:188,3
DA:189,4
DA:190,3
DA:191,3
DA:192,4
DA:193,3
DA:194,3
DA:195,4
DA:196,1
DA:197,3
DA:198,3
DA:199,1
DA:200,2
DA:201,3
DA:202,1
DA:203,2
DA:204,3
DA:205,1
DA:206,2
DA:207,3
DA:208,4
DA:211,1
DA:212,1
DA:213,1
DA:214,1
DA:215,1
DA:216,1
DA:217,1
DA:218,1
DA:219,1
DA:220,1
DA:221,1
DA:222,1
DA:223,1
DA:224,1
DA:225,1
DA:226,1
DA:227,1
DA:228,1
DA:229,1
DA:230,1
DA:231,1
DA:232,1
DA:233,1
DA:235,1
DA:247,1
DA:248,1
DA:249,1
DA:250,1
DA:251,1
DA:252,1
DA:254,1
DA:255,0
DA:257,1
DA:263,5
DA:264,5
DA:265,2
DA:266,3
DA:267,3
DA:268,3
DA:269,3
DA:270,3
DA:271,2
DA:275,2
DA:276,1
DA:277,1
DA:282,5
DA:284,15
DA:286,15
DA:287,15
DA:288,3
DA:289,12
DA:291,12
DA:292,12
DA:293,11
DA:294,1
DA:295,1
DA:296,15
DA:301,3
DA:302,3
DA:303,3
DA:304,1
DA:305,2
DA:306,2
DA:307,1
DA:310,1
DA:311,1
DA:312,1
DA:313,1
DA:314,1
DA:316,1
DA:318,0
DA:319,0
DA:320,0
DA:321,0
DA:322,0
DA:323,3
DA:326,0
DA:327,0
DA:329,0
DA:330,0
DA:331,0
DA:332,0
DA:334,0
DA:335,0
DA:336,0
DA:337,0
DA:338,0
DA:339,0
DA:340,0
DA:341,0
DA:342,0
DA:343,0
DA:344,0
DA:345,0
DA:346,0
DA:347,0
DA:348,0
DA:349,0
DA:350,0
DA:351,0
DA:352,0
DA:353,0
DA:354,0
DA:355,0
DA:356,0
DA:357,0
DA:358,0
DA:359,0
DA:360,0
DA:361,0
DA:362,0
DA:363,0
DA:364,0
DA:365,0
DA:366,0
DA:367,0
DA:368,0
DA:369,0
DA:370,0
DA:371,0
DA:372,0
DA:373,0
DA:374,0
DA:375,0
DA:376,0
DA:377,0
DA:378,0
DA:379,0
DA:380,0
DA:381,0
DA:382,0
DA:383,0
DA:384,0
DA:385,0
DA:386,0
DA:387,0
DA:388,0
DA:389,0
DA:390,0
DA:391,0
DA:392,0
DA:393,0
DA:394,0
DA:395,0
DA:396,0
DA:397,0
DA:398,0
DA:399,0
DA:400,0
DA:401,0
DA:402,0
DA:403,0
DA:404,0
DA:405,0
DA:406,0
DA:407,0
DA:408,0
DA:409,0
DA:410,0
DA:411,0
DA:412,0
DA:413,0
DA:414,0
DA:415,0
DA:416,0
DA:417,0
DA:418,0
DA:419,0
DA:420,0
DA:421,0
DA:422,0
DA:423,0
DA:424,0
DA:435,1
DA:436,1
DA:437,1
DA:438,1
DA:439,1
DA:440,1
DA:441,1
DA:442,1
DA:443,1
DA:444,1
DA:447,1
DA:448,1
DA:449,1
DA:450,1
DA:453,1
DA:454,1
DA:455,1
DA:456,1
DA:457,1
DA:458,1
DA:459,1
DA:460,1
DA:461,0
DA:462,0
DA:463,0
DA:464,1
DA:465,1
DA:466,1
DA:469,1
DA:472,1
DA:473,1
DA:474,1
DA:477,1
DA:478,1
DA:479,1
DA:481,1
DA:482,1
DA:483,1
DA:486,1
DA:487,1
DA:488,1
DA:490,0
DA:492,1
DA:495,1
DA:496,1
DA:497,1
DA:498,1
DA:499,1
DA:501,0
DA:503,1
DA:506,1
DA:507,1
DA:508,1
DA:509,1
DA:510,1
DA:512,0
DA:514,1
DA:517,1
DA:518,1
DA:519,1
DA:520,1
DA:521,1
DA:523,0
DA:525,1
DA:528,1
DA:529,1
DA:530,1
DA:531,1
DA:532,0
DA:534,1
DA:537,1
DA:538,1
DA:539,1
DA:540,1
DA:543,1
DA:544,1
DA:545,1
DA:546,1
DA:547,1
DA:548,1
DA:551,1
DA:552,1
DA:553,1
DA:554,1
DA:557,1
DA:558,1
DA:559,1
DA:560,1
DA:561,1
DA:562,1
DA:565,1
DA:568,1
DA:569,1
DA:572,1
DA:573,1
DA:574,1
DA:575,1
DA:576,1
DA:577,1
DA:578,1
DA:579,1
DA:580,0
DA:581,0
DA:582,0
DA:584,1
DA:585,1
DA:586,1
DA:588,1
DA:589,1
DA:592,1
DA:593,1
DA:594,1
DA:595,1
DA:596,1
DA:599,1
DA:600,1
DA:601,1
DA:602,1
DA:603,1
DA:604,1
DA:605,1
DA:606,1
DA:607,1
DA:608,1
DA:609,1
DA:611,1
DA:612,1
DA:613,1
DA:614,1
DA:615,1
DA:616,1
DA:617,1
DA:618,1
DA:619,1
DA:620,1
DA:623,1
DA:624,1
DA:625,1
DA:626,1
DA:627,1
DA:628,1
DA:631,1
DA:632,1
DA:633,1
DA:634,1
DA:635,1
DA:636,1
DA:639,1
DA:640,1
DA:641,1
DA:643,1
DA:644,1
DA:646,1
DA:649,1
DA:651,1
DA:652,1
DA:653,1
DA:654,1
DA:655,1
DA:656,1
DA:657,1
DA:659,1
DA:661,1
DA:662,1
BRF:0
BRH:0
LF:457
LH:266
end_of_record
SF:/Users/ekhodzitsky/Documents/personal/gigastt/crates/gigastt/src/server/config.rs
FN:45,_RNvMNtNtCsbd9nAVVXtRC_7gigastt6server6configNtB2_12OriginPolicy13loopback_only
FN:241,_RNvMs3_NtNtCsbd9nAVVXtRC_7gigastt6server6configNtB5_12ServerConfig5local
FN:84,_RNvMs_NtNtCsbd9nAVVXtRC_7gigastt6server6configNtB4_12OriginPolicy8evaluate
FN:206,_RNvNtNtCsbd9nAVVXtRC_7gigastt6server6config16load_config_file
FN:63,_RNvNtNtCsbd9nAVVXtRC_7gigastt6server6config18is_loopback_origin
FN:15,_RNvNtNtCsbd9nAVVXtRC_7gigastt6server6config19pool_retry_after_ms
FN:21,_RNvNtNtCsbd9nAVVXtRC_7gigastt6server6config21pool_retry_after_secs
FN:136,_RNvXs0_NtNtCsbd9nAVVXtRC_7gigastt6server6configNtB5_13RuntimeLimitsNtNtCsl8K0bEFm1U0_4core7default7Default7default
FN:175,_RNvXs1_NtNtCsbd9nAVVXtRC_7gigastt6server6configNtB5_19RuntimeLimitsConfigNtNtCsl8K0bEFm1U0_4core7default7Default7default
FN:191,_RNvXs2_NtNtCsbd9nAVVXtRC_7gigastt6server6configNtB5_13RuntimeLimitsINtNtCsl8K0bEFm1U0_4core7convert4FromNtB5_19RuntimeLimitsConfigE4from
FN:97,_RNCNvMs_NtNtCsbd9nAVVXtRC_7gigastt6server6configNtB6_12OriginPolicy8evaluate0Ba_
FN:208,_RNCNvNtNtCsbd9nAVVXtRC_7gigastt6server6config16load_config_file0B7_
FN:210,_RNCNvNtNtCsbd9nAVVXtRC_7gigastt6server6config16load_config_files_0B7_
FN:77,_RNCNvNtNtCsbd9nAVVXtRC_7gigastt6server6config18is_loopback_origin0B7_
FN:97,_RNCNvMs_NtNtCsk023ZLJrxN2_7gigastt6server6configNtB6_12OriginPolicy8evaluate0Ba_
FN:208,_RNCNvNtNtCsk023ZLJrxN2_7gigastt6server6config16load_config_file0B7_
FN:210,_RNCNvNtNtCsk023ZLJrxN2_7gigastt6server6config16load_config_files_0B7_
FN:77,_RNCNvNtNtCsk023ZLJrxN2_7gigastt6server6config18is_loopback_origin0B7_
FN:45,_RNvMNtNtCsk023ZLJrxN2_7gigastt6server6configNtB2_12OriginPolicy13loopback_only
FN:241,_RNvMs3_NtNtCsk023ZLJrxN2_7gigastt6server6configNtB5_12ServerConfig5local
FN:84,_RNvMs_NtNtCsk023ZLJrxN2_7gigastt6server6configNtB4_12OriginPolicy8evaluate
FN:206,_RNvNtNtCsk023ZLJrxN2_7gigastt6server6config16load_config_file
FN:63,_RNvNtNtCsk023ZLJrxN2_7gigastt6server6config18is_loopback_origin
FN:15,_RNvNtNtCsk023ZLJrxN2_7gigastt6server6config19pool_retry_after_ms
FN:21,_RNvNtNtCsk023ZLJrxN2_7gigastt6server6config21pool_retry_after_secs
FN:136,_RNvXs0_NtNtCsk023ZLJrxN2_7gigastt6server6configNtB5_13RuntimeLimitsNtNtCsl8K0bEFm1U0_4core7default7Default7default
FN:175,_RNvXs1_NtNtCsk023ZLJrxN2_7gigastt6server6configNtB5_19RuntimeLimitsConfigNtNtCsl8K0bEFm1U0_4core7default7Default7default
FN:191,_RNvXs2_NtNtCsk023ZLJrxN2_7gigastt6server6configNtB5_13RuntimeLimitsINtNtCsl8K0bEFm1U0_4core7convert4FromNtB5_19RuntimeLimitsConfigE4from
FN:432,_RNvNtNtNtCsk023ZLJrxN2_7gigastt6server6config5testss_27test_load_config_file_valid
FN:310,_RNvNtNtNtCsk023ZLJrxN2_7gigastt6server6config5testss_28test_loopback_origin_matcher
FN:370,_RNvNtNtNtCsk023ZLJrxN2_7gigastt6server6config5testss_29test_runtime_limits_from_toml
FN:422,_RNvNtNtNtCsk023ZLJrxN2_7gigastt6server6config5testss_30test_load_config_file_bad_toml
FN:414,_RNvNtNtNtCsk023ZLJrxN2_7gigastt6server6config5testss_31test_load_config_file_not_found
FN:446,_RNvNtNtNtCsk023ZLJrxN2_7gigastt6server6config5testss_33test_server_config_local_defaults
FN:404,_RNvNtNtNtCsk023ZLJrxN2_7gigastt6server6config5testss_35test_pool_retry_after_ms_saturation
FN:391,_RNvNtNtNtCsk023ZLJrxN2_7gigastt6server6config5testss_36test_origin_policy_no_header_allowed
FN:382,_RNvNtNtNtCsk023ZLJrxN2_7gigastt6server6config5testss_36test_runtime_limits_config_to_limits
FN:286,_RNvNtNtNtCsk023ZLJrxN2_7gigastt6server6config5testss_36test_supported_rates_contains_common
FN:302,_RNvNtNtNtCsk023ZLJrxN2_7gigastt6server6config5testss_37test_default_sample_rate_in_supported
FN:341,_RNvNtNtNtCsk023ZLJrxN2_7gigastt6server6config5testss_39test_origin_policy_allows_listed_origin
FN:358,_RNvNtNtNtCsk023ZLJrxN2_7gigastt6server6config5testss_43test_origin_policy_allow_any_short_circuits
FN:332,_RNvNtNtNtCsk023ZLJrxN2_7gigastt6server6config5testss_45test_origin_policy_allows_loopback_by_default
FN:323,_RNvNtNtNtCsk023ZLJrxN2_7gigastt6server6config5testss_45test_origin_policy_default_denies_third_party
FN:269,_RNvNtNtNtCsk023ZLJrxN2_7gigastt6server6config5testss_45test_runtime_limits_default_session_and_drain
FN:259,_RNvNtNtNtCsk023ZLJrxN2_7gigastt6server6config5testss_47test_runtime_limits_default_rate_limit_disabled
FNDA:0,_RNvMNtNtCsbd9nAVVXtRC_7gigastt6server6configNtB2_12OriginPolicy13loopback_only
FNDA:0,_RNvMs3_NtNtCsbd9nAVVXtRC_7gigastt6server6configNtB5_12ServerConfig5local
FNDA:0,_RNvMs_NtNtCsbd9nAVVXtRC_7gigastt6server6configNtB4_12OriginPolicy8evaluate
FNDA:0,_RNvNtNtCsbd9nAVVXtRC_7gigastt6server6config16load_config_file
FNDA:0,_RNvNtNtCsbd9nAVVXtRC_7gigastt6server6config18is_loopback_origin
FNDA:0,_RNvNtNtCsbd9nAVVXtRC_7gigastt6server6config19pool_retry_after_ms
FNDA:0,_RNvNtNtCsbd9nAVVXtRC_7gigastt6server6config21pool_retry_after_secs
FNDA:5,_RNvXs0_NtNtCsbd9nAVVXtRC_7gigastt6server6configNtB5_13RuntimeLimitsNtNtCsl8K0bEFm1U0_4core7default7Default7default
FNDA:0,_RNvXs1_NtNtCsbd9nAVVXtRC_7gigastt6server6configNtB5_19RuntimeLimitsConfigNtNtCsl8K0bEFm1U0_4core7default7Default7default
FNDA:0,_RNvXs2_NtNtCsbd9nAVVXtRC_7gigastt6server6configNtB5_13RuntimeLimitsINtNtCsl8K0bEFm1U0_4core7convert4FromNtB5_19RuntimeLimitsConfigE4from
FNDA:0,_RNCNvMs_NtNtCsbd9nAVVXtRC_7gigastt6server6configNtB6_12OriginPolicy8evaluate0Ba_
FNDA:0,_RNCNvNtNtCsbd9nAVVXtRC_7gigastt6server6config16load_config_file0B7_
FNDA:0,_RNCNvNtNtCsbd9nAVVXtRC_7gigastt6server6config16load_config_files_0B7_
FNDA:0,_RNCNvNtNtCsbd9nAVVXtRC_7gigastt6server6config18is_loopback_origin0B7_
FNDA:2,_RNCNvMs_NtNtCsk023ZLJrxN2_7gigastt6server6configNtB6_12OriginPolicy8evaluate0Ba_
FNDA:1,_RNCNvNtNtCsk023ZLJrxN2_7gigastt6server6config16load_config_file0B7_
FNDA:1,_RNCNvNtNtCsk023ZLJrxN2_7gigastt6server6config16load_config_files_0B7_
FNDA:65,_RNCNvNtNtCsk023ZLJrxN2_7gigastt6server6config18is_loopback_origin0B7_
FNDA:6,_RNvMNtNtCsk023ZLJrxN2_7gigastt6server6configNtB2_12OriginPolicy13loopback_only
FNDA:2,_RNvMs3_NtNtCsk023ZLJrxN2_7gigastt6server6configNtB5_12ServerConfig5local
FNDA:11,_RNvMs_NtNtCsk023ZLJrxN2_7gigastt6server6configNtB4_12OriginPolicy8evaluate
FNDA:3,_RNvNtNtCsk023ZLJrxN2_7gigastt6server6config16load_config_file
FNDA:15,_RNvNtNtCsk023ZLJrxN2_7gigastt6server6config18is_loopback_origin
FNDA:3,_RNvNtNtCsk023ZLJrxN2_7gigastt6server6config19pool_retry_after_ms
FNDA:2,_RNvNtNtCsk023ZLJrxN2_7gigastt6server6config21pool_retry_after_secs
FNDA:10,_RNvXs0_NtNtCsk023ZLJrxN2_7gigastt6server6configNtB5_13RuntimeLimitsNtNtCsl8K0bEFm1U0_4core7default7Default7default
FNDA:3,_RNvXs1_NtNtCsk023ZLJrxN2_7gigastt6server6configNtB5_19RuntimeLimitsConfigNtNtCsl8K0bEFm1U0_4core7default7Default7default
FNDA:2,_RNvXs2_NtNtCsk023ZLJrxN2_7gigastt6server6configNtB5_13RuntimeLimitsINtNtCsl8K0bEFm1U0_4core7convert4FromNtB5_19RuntimeLimitsConfigE4from
FNDA:1,_RNvNtNtNtCsk023ZLJrxN2_7gigastt6server6config5testss_27test_load_config_file_valid
FNDA:1,_RNvNtNtNtCsk023ZLJrxN2_7gigastt6server6config5testss_28test_loopback_origin_matcher
FNDA:1,_RNvNtNtNtCsk023ZLJrxN2_7gigastt6server6config5testss_29test_runtime_limits_from_toml
FNDA:1,_RNvNtNtNtCsk023ZLJrxN2_7gigastt6server6config5testss_30test_load_config_file_bad_toml
FNDA:1,_RNvNtNtNtCsk023ZLJrxN2_7gigastt6server6config5testss_31test_load_config_file_not_found
FNDA:1,_RNvNtNtNtCsk023ZLJrxN2_7gigastt6server6config5testss_33test_server_config_local_defaults
FNDA:1,_RNvNtNtNtCsk023ZLJrxN2_7gigastt6server6config5testss_35test_pool_retry_after_ms_saturation
FNDA:1,_RNvNtNtNtCsk023ZLJrxN2_7gigastt6server6config5testss_36test_origin_policy_no_header_allowed
FNDA:1,_RNvNtNtNtCsk023ZLJrxN2_7gigastt6server6config5testss_36test_runtime_limits_config_to_limits
FNDA:1,_RNvNtNtNtCsk023ZLJrxN2_7gigastt6server6config5testss_36test_supported_rates_contains_common
FNDA:1,_RNvNtNtNtCsk023ZLJrxN2_7gigastt6server6config5testss_37test_default_sample_rate_in_supported
FNDA:1,_RNvNtNtNtCsk023ZLJrxN2_7gigastt6server6config5testss_39test_origin_policy_allows_listed_origin
FNDA:1,_RNvNtNtNtCsk023ZLJrxN2_7gigastt6server6config5testss_43test_origin_policy_allow_any_short_circuits
FNDA:1,_RNvNtNtNtCsk023ZLJrxN2_7gigastt6server6config5testss_45test_origin_policy_allows_loopback_by_default
FNDA:1,_RNvNtNtNtCsk023ZLJrxN2_7gigastt6server6config5testss_45test_origin_policy_default_denies_third_party
FNDA:1,_RNvNtNtNtCsk023ZLJrxN2_7gigastt6server6config5testss_45test_runtime_limits_default_session_and_drain
FNDA:1,_RNvNtNtNtCsk023ZLJrxN2_7gigastt6server6config5testss_47test_runtime_limits_default_rate_limit_disabled
FNF:31
FNH:31
DA:15,3
DA:16,3
DA:17,3
DA:18,3
DA:19,3
DA:20,3
DA:21,2
DA:22,2
DA:23,2
DA:45,6
DA:46,6
DA:47,6
DA:63,15
DA:68,15
DA:77,65
DA:78,56
DA:79,9
DA:80,65
DA:81,15
DA:84,11
DA:85,11
DA:86,2
DA:88,9
DA:89,1
DA:90,8
DA:91,8
DA:92,3
DA:93,5
DA:94,5
DA:95,5
DA:96,5
DA:97,5
DA:99,1
DA:100,4
DA:101,4
DA:102,11
DA:136,15
DA:137,15
DA:138,15
DA:139,15
DA:140,15
DA:141,15
DA:142,15
DA:143,15
DA:144,15
DA:145,15
DA:146,15
DA:147,15
DA:175,3
DA:176,3
DA:177,3
DA:178,3
DA:179,3
DA:180,3
DA:181,3
DA:182,3
DA:183,3
DA:184,3
DA:185,3
DA:186,3
DA:187,3
DA:191,2
DA:192,2
DA:193,2
DA:194,2
DA:195,2
DA:196,2
DA:197,2
DA:198,2
DA:199,2
DA:200,2
DA:201,2
DA:202,2
DA:206,3
DA:207,3
DA:208,3
DA:209,2
DA:210,2
DA:211,1
DA:212,3
DA:241,2
DA:242,2
DA:243,2
DA:244,2
DA:245,2
DA:246,2
DA:247,2
DA:248,2
DA:249,2
DA:250,2
DA:251,2
DA:259,1
DA:260,1
DA:261,1
DA:265,1
DA:266,1
DA:269,1
DA:272,1
DA:273,1
DA:278,1
DA:283,1
DA:286,1
DA:287,1
DA:288,1
DA:291,1
DA:292,1
DA:295,1
DA:296,1
DA:299,1
DA:302,1
DA:303,1
DA:304,1
DA:307,1
DA:310,1
DA:311,1
DA:312,1
DA:313,1
DA:314,1
DA:315,1
DA:316,1
DA:317,1
DA:319,1
DA:320,1
DA:323,1
DA:324,1
DA:325,1
DA:326,1
DA:329,1
DA:332,1
DA:333,1
DA:334,1
DA:335,1
DA:338,1
DA:341,1
DA:342,1
DA:343,1
DA:344,1
DA:345,1
DA:346,1
DA:347,1
DA:351,1
DA:352,1
DA:355,1
DA:358,1
DA:359,1
DA:360,1
DA:361,1
DA:362,1
DA:363,1
DA:364,1
DA:367,1
DA:370,1
DA:371,1
DA:372,1
DA:373,1
DA:374,1
DA:375,1
DA:376,1
DA:377,1
DA:378,1
DA:379,1
DA:382,1
DA:383,1
DA:384,1
DA:385,1
DA:386,1
DA:387,1
DA:388,1
DA:391,1
DA:392,1
DA:393,1
DA:394,1
DA:397,1
DA:398,1
DA:401,1
DA:404,1
DA:405,1
DA:406,1
DA:407,1
DA:408,1
DA:409,1
DA:410,1
DA:411,1
DA:414,1
DA:415,1
DA:416,1
DA:417,1
DA:418,1
DA:419,1
DA:422,1
DA:423,1
DA:424,1
DA:425,1
DA:426,1
DA:427,1
DA:428,1
DA:429,1
DA:432,1
DA:433,1
DA:434,1
DA:435,1
DA:438,1
DA:439,1
DA:440,1
DA:441,1
DA:442,1
DA:443,1
DA:446,1
DA:447,1
DA:448,1
DA:449,1
DA:450,1
DA:451,1
DA:452,1
DA:453,1
BRF:0
BRH:0
LF:219
LH:219
end_of_record
SF:/Users/ekhodzitsky/Documents/personal/gigastt/crates/gigastt/src/server/http.rs
FN:273,_RNvNtNtCsbd9nAVVXtRC_7gigastt6server4http10transcribe
FN:130,_RNvNtNtCsbd9nAVVXtRC_7gigastt6server4http17api_timeout_error
FN:398,_RNvNtNtCsbd9nAVVXtRC_7gigastt6server4http17transcribe_stream
FN:149,_RNvNtNtCsbd9nAVVXtRC_7gigastt6server4http21api_pool_closed_error
FN:175,_RNvNtNtCsbd9nAVVXtRC_7gigastt6server4http6health
FN:229,_RNvNtNtCsbd9nAVVXtRC_7gigastt6server4http6models
FN:40,_RNvNtNtCsbd9nAVVXtRC_7gigastt6server4http7metrics
FN:118,_RNvNtNtCsbd9nAVVXtRC_7gigastt6server4http9api_error
FN:185,_RNvNtNtCsbd9nAVVXtRC_7gigastt6server4http9readiness
FN:340,_RNCNCNCNvNtNtCsbd9nAVVXtRC_7gigastt6server4http10transcribe000Bb_
FN:494,_RNCNCNCNvNtNtCsbd9nAVVXtRC_7gigastt6server4http17transcribe_stream0s1_00Bb_
FN:337,_RNCNCNvNtNtCsbd9nAVVXtRC_7gigastt6server4http10transcribe00B9_
FN:425,_RNCNCNvNtNtCsbd9nAVVXtRC_7gigastt6server4http17transcribe_stream00B9_
FN:437,_RNCNCNvNtNtCsbd9nAVVXtRC_7gigastt6server4http17transcribe_stream0s0_0B9_
FN:491,_RNCNCNvNtNtCsbd9nAVVXtRC_7gigastt6server4http17transcribe_stream0s1_0B9_
FN:535,_RNCNCNvNtNtCsbd9nAVVXtRC_7gigastt6server4http17transcribe_stream0s2_0B9_
FN:429,_RNCNCNvNtNtCsbd9nAVVXtRC_7gigastt6server4http17transcribe_stream0s_0B9_
FN:276,_RNCNvNtNtCsbd9nAVVXtRC_7gigastt6server4http10transcribe0B7_
FN:401,_RNCNvNtNtCsbd9nAVVXtRC_7gigastt6server4http17transcribe_stream0B7_
FN:175,_RNCNvNtNtCsbd9nAVVXtRC_7gigastt6server4http6health0B7_
FN:229,_RNCNvNtNtCsbd9nAVVXtRC_7gigastt6server4http6models0B7_
FN:40,_RNCNvNtNtCsbd9nAVVXtRC_7gigastt6server4http7metrics0B7_
FN:185,_RNCNvNtNtCsbd9nAVVXtRC_7gigastt6server4http9readiness0B7_
FN:340,_RNCNCNCNvNtNtCsk023ZLJrxN2_7gigastt6server4http10transcribe000Bb_
FN:494,_RNCNCNCNvNtNtCsk023ZLJrxN2_7gigastt6server4http17transcribe_stream0s1_00Bb_
FN:337,_RNCNCNvNtNtCsk023ZLJrxN2_7gigastt6server4http10transcribe00B9_
FN:425,_RNCNCNvNtNtCsk023ZLJrxN2_7gigastt6server4http17transcribe_stream00B9_
FN:437,_RNCNCNvNtNtCsk023ZLJrxN2_7gigastt6server4http17transcribe_stream0s0_0B9_
FN:491,_RNCNCNvNtNtCsk023ZLJrxN2_7gigastt6server4http17transcribe_stream0s1_0B9_
FN:535,_RNCNCNvNtNtCsk023ZLJrxN2_7gigastt6server4http17transcribe_stream0s2_0B9_
FN:429,_RNCNCNvNtNtCsk023ZLJrxN2_7gigastt6server4http17transcribe_stream0s_0B9_
FN:276,_RNCNvNtNtCsk023ZLJrxN2_7gigastt6server4http10transcribe0B7_
FN:401,_RNCNvNtNtCsk023ZLJrxN2_7gigastt6server4http17transcribe_stream0B7_
FN:175,_RNCNvNtNtCsk023ZLJrxN2_7gigastt6server4http6health0B7_
FN:229,_RNCNvNtNtCsk023ZLJrxN2_7gigastt6server4http6models0B7_
FN:40,_RNCNvNtNtCsk023ZLJrxN2_7gigastt6server4http7metrics0B7_
FN:185,_RNCNvNtNtCsk023ZLJrxN2_7gigastt6server4http9readiness0B7_
FN:689,_RNCNCNvNtNtNtCsk023ZLJrxN2_7gigastt6server4http5testss_34test_readiness_when_pool_exhausted00Bb_
FN:873,_RNCNvNtNtNtCsk023ZLJrxN2_7gigastt6server4http5tests11test_engine0B9_
FN:622,_RNCNvNtNtNtCsk023ZLJrxN2_7gigastt6server4http5testss_20test_api_error_basic0B9_
FN:729,_RNCNvNtNtNtCsk023ZLJrxN2_7gigastt6server4http5testss_24test_models_with_metrics0B9_
FN:744,_RNCNvNtNtNtCsk023ZLJrxN2_7gigastt6server4http5testss_27test_readiness_with_metrics0B9_
FN:758,_RNCNvNtNtNtCsk023ZLJrxN2_7gigastt6server4http5testss_27test_transcribe_pool_closed0B9_
FN:837,_RNCNvNtNtNtCsk023ZLJrxN2_7gigastt6server4http5testss_28test_transcribe_with_metrics0B9_
FN:708,_RNCNvNtNtNtCsk023ZLJrxN2_7gigastt6server4http5testss_33test_transcribe_payload_too_large0B9_
FN:686,_RNCNvNtNtNtCsk023ZLJrxN2_7gigastt6server4http5testss_34test_readiness_when_pool_exhausted0B9_
FN:817,_RNCNvNtNtNtCsk023ZLJrxN2_7gigastt6server4http5testss_34test_transcribe_stream_pool_closed0B9_
FN:654,_RNCNvNtNtNtCsk023ZLJrxN2_7gigastt6server4http5testss_35test_api_pool_closed_error_no_retry0B9_
FN:854,_RNCNvNtNtNtCsk023ZLJrxN2_7gigastt6server4http5testss_35test_transcribe_stream_with_metrics0B9_
FN:778,_RNCNvNtNtNtCsk023ZLJrxN2_7gigastt6server4http5testss_36test_transcribe_stream_invalid_audio0B9_
FN:667,_RNCNvNtNtNtCsk023ZLJrxN2_7gigastt6server4http5testss_38test_readiness_when_shutdown_cancelled0B9_
FN:796,_RNCNvNtNtNtCsk023ZLJrxN2_7gigastt6server4http5testss_40test_transcribe_stream_payload_too_large0B9_
FN:633,_RNCNvNtNtNtCsk023ZLJrxN2_7gigastt6server4http5testss_43test_api_timeout_error_includes_retry_after0B9_
FN:273,_RNvNtNtCsk023ZLJrxN2_7gigastt6server4http10transcribe
FN:130,_RNvNtNtCsk023ZLJrxN2_7gigastt6server4http17api_timeout_error
FN:398,_RNvNtNtCsk023ZLJrxN2_7gigastt6server4http17transcribe_stream
FN:149,_RNvNtNtCsk023ZLJrxN2_7gigastt6server4http21api_pool_closed_error
FN:175,_RNvNtNtCsk023ZLJrxN2_7gigastt6server4http6health
FN:229,_RNvNtNtCsk023ZLJrxN2_7gigastt6server4http6models
FN:40,_RNvNtNtCsk023ZLJrxN2_7gigastt6server4http7metrics
FN:118,_RNvNtNtCsk023ZLJrxN2_7gigastt6server4http9api_error
FN:185,_RNvNtNtCsk023ZLJrxN2_7gigastt6server4http9readiness
FN:886,_RNvNtNtNtCsk023ZLJrxN2_7gigastt6server4http5tests11minimal_wav
FN:869,_RNvNtNtNtCsk023ZLJrxN2_7gigastt6server4http5tests11test_engine
FN:882,_RNvNtNtNtCsk023ZLJrxN2_7gigastt6server4http5tests12fresh_engine
FN:908,_RNvNtNtNtCsk023ZLJrxN2_7gigastt6server4http5tests9short_wav
FN:622,_RNvNtNtNtCsk023ZLJrxN2_7gigastt6server4http5testss_20test_api_error_basic
FN:729,_RNvNtNtNtCsk023ZLJrxN2_7gigastt6server4http5testss_24test_models_with_metrics
FN:744,_RNvNtNtNtCsk023ZLJrxN2_7gigastt6server4http5testss_27test_readiness_with_metrics
FN:758,_RNvNtNtNtCsk023ZLJrxN2_7gigastt6server4http5testss_27test_transcribe_pool_closed
FN:837,_RNvNtNtNtCsk023ZLJrxN2_7gigastt6server4http5testss_28test_transcribe_with_metrics
FN:708,_RNvNtNtNtCsk023ZLJrxN2_7gigastt6server4http5testss_33test_transcribe_payload_too_large
FN:567,_RNvNtNtNtCsk023ZLJrxN2_7gigastt6server4http5testss_34test_health_response_serialization
FN:686,_RNvNtNtNtCsk023ZLJrxN2_7gigastt6server4http5testss_34test_readiness_when_pool_exhausted
FN:817,_RNvNtNtNtCsk023ZLJrxN2_7gigastt6server4http5testss_34test_transcribe_stream_pool_closed
FN:654,_RNvNtNtNtCsk023ZLJrxN2_7gigastt6server4http5testss_35test_api_pool_closed_error_no_retry
FN:854,_RNvNtNtNtCsk023ZLJrxN2_7gigastt6server4http5testss_35test_transcribe_stream_with_metrics
FN:778,_RNvNtNtNtCsk023ZLJrxN2_7gigastt6server4http5testss_36test_transcribe_stream_invalid_audio
FN:667,_RNvNtNtNtCsk023ZLJrxN2_7gigastt6server4http5testss_38test_readiness_when_shutdown_cancelled
FN:580,_RNvNtNtNtCsk023ZLJrxN2_7gigastt6server4http5testss_38test_transcribe_response_serialization
FN:796,_RNvNtNtNtCsk023ZLJrxN2_7gigastt6server4http5testss_40test_transcribe_stream_payload_too_large
FN:633,_RNvNtNtNtCsk023ZLJrxN2_7gigastt6server4http5testss_43test_api_timeout_error_includes_retry_after
FN:594,_RNvNtNtNtCsk023ZLJrxN2_7gigastt6server4http5testss_43test_readiness_response_ready_serialization
FN:609,_RNvNtNtNtCsk023ZLJrxN2_7gigastt6server4http5testss_47test_readiness_response_not_ready_serialization
FNDA:0,_RNvNtNtCsbd9nAVVXtRC_7gigastt6server4http10transcribe
FNDA:0,_RNvNtNtCsbd9nAVVXtRC_7gigastt6server4http17api_timeout_error
FNDA:0,_RNvNtNtCsbd9nAVVXtRC_7gigastt6server4http17transcribe_stream
FNDA:0,_RNvNtNtCsbd9nAVVXtRC_7gigastt6server4http21api_pool_closed_error
FNDA:0,_RNvNtNtCsbd9nAVVXtRC_7gigastt6server4http6health
FNDA:0,_RNvNtNtCsbd9nAVVXtRC_7gigastt6server4http6models
FNDA:0,_RNvNtNtCsbd9nAVVXtRC_7gigastt6server4http7metrics
FNDA:0,_RNvNtNtCsbd9nAVVXtRC_7gigastt6server4http9api_error
FNDA:0,_RNvNtNtCsbd9nAVVXtRC_7gigastt6server4http9readiness
FNDA:0,_RNCNCNCNvNtNtCsbd9nAVVXtRC_7gigastt6server4http10transcribe000Bb_
FNDA:0,_RNCNCNCNvNtNtCsbd9nAVVXtRC_7gigastt6server4http17transcribe_stream0s1_00Bb_
FNDA:0,_RNCNCNvNtNtCsbd9nAVVXtRC_7gigastt6server4http10transcribe00B9_
FNDA:0,_RNCNCNvNtNtCsbd9nAVVXtRC_7gigastt6server4http17transcribe_stream00B9_
FNDA:0,_RNCNCNvNtNtCsbd9nAVVXtRC_7gigastt6server4http17transcribe_stream0s0_0B9_
FNDA:0,_RNCNCNvNtNtCsbd9nAVVXtRC_7gigastt6server4http17transcribe_stream0s1_0B9_
FNDA:0,_RNCNCNvNtNtCsbd9nAVVXtRC_7gigastt6server4http17transcribe_stream0s2_0B9_
FNDA:0,_RNCNCNvNtNtCsbd9nAVVXtRC_7gigastt6server4http17transcribe_stream0s_0B9_
FNDA:0,_RNCNvNtNtCsbd9nAVVXtRC_7gigastt6server4http10transcribe0B7_
FNDA:0,_RNCNvNtNtCsbd9nAVVXtRC_7gigastt6server4http17transcribe_stream0B7_
FNDA:0,_RNCNvNtNtCsbd9nAVVXtRC_7gigastt6server4http6health0B7_
FNDA:0,_RNCNvNtNtCsbd9nAVVXtRC_7gigastt6server4http6models0B7_
FNDA:0,_RNCNvNtNtCsbd9nAVVXtRC_7gigastt6server4http7metrics0B7_
FNDA:0,_RNCNvNtNtCsbd9nAVVXtRC_7gigastt6server4http9readiness0B7_
FNDA:0,_RNCNCNCNvNtNtCsk023ZLJrxN2_7gigastt6server4http10transcribe000Bb_
FNDA:0,_RNCNCNCNvNtNtCsk023ZLJrxN2_7gigastt6server4http17transcribe_stream0s1_00Bb_
FNDA:0,_RNCNCNvNtNtCsk023ZLJrxN2_7gigastt6server4http10transcribe00B9_
FNDA:0,_RNCNCNvNtNtCsk023ZLJrxN2_7gigastt6server4http17transcribe_stream00B9_
FNDA:0,_RNCNCNvNtNtCsk023ZLJrxN2_7gigastt6server4http17transcribe_stream0s0_0B9_
FNDA:0,_RNCNCNvNtNtCsk023ZLJrxN2_7gigastt6server4http17transcribe_stream0s1_0B9_
FNDA:0,_RNCNCNvNtNtCsk023ZLJrxN2_7gigastt6server4http17transcribe_stream0s2_0B9_
FNDA:0,_RNCNCNvNtNtCsk023ZLJrxN2_7gigastt6server4http17transcribe_stream0s_0B9_
FNDA:0,_RNCNvNtNtCsk023ZLJrxN2_7gigastt6server4http10transcribe0B7_
FNDA:0,_RNCNvNtNtCsk023ZLJrxN2_7gigastt6server4http17transcribe_stream0B7_
FNDA:0,_RNCNvNtNtCsk023ZLJrxN2_7gigastt6server4http6health0B7_
FNDA:0,_RNCNvNtNtCsk023ZLJrxN2_7gigastt6server4http6models0B7_
FNDA:0,_RNCNvNtNtCsk023ZLJrxN2_7gigastt6server4http7metrics0B7_
FNDA:0,_RNCNvNtNtCsk023ZLJrxN2_7gigastt6server4http9readiness0B7_
FNDA:0,_RNCNCNvNtNtNtCsk023ZLJrxN2_7gigastt6server4http5testss_34test_readiness_when_pool_exhausted00Bb_
FNDA:0,_RNCNvNtNtNtCsk023ZLJrxN2_7gigastt6server4http5tests11test_engine0B9_
FNDA:1,_RNCNvNtNtNtCsk023ZLJrxN2_7gigastt6server4http5testss_20test_api_error_basic0B9_
FNDA:0,_RNCNvNtNtNtCsk023ZLJrxN2_7gigastt6server4http5testss_24test_models_with_metrics0B9_
FNDA:0,_RNCNvNtNtNtCsk023ZLJrxN2_7gigastt6server4http5testss_27test_readiness_with_metrics0B9_
FNDA:0,_RNCNvNtNtNtCsk023ZLJrxN2_7gigastt6server4http5testss_27test_transcribe_pool_closed0B9_
FNDA:0,_RNCNvNtNtNtCsk023ZLJrxN2_7gigastt6server4http5testss_28test_transcribe_with_metrics0B9_
FNDA:0,_RNCNvNtNtNtCsk023ZLJrxN2_7gigastt6server4http5testss_33test_transcribe_payload_too_large0B9_
FNDA:0,_RNCNvNtNtNtCsk023ZLJrxN2_7gigastt6server4http5testss_34test_readiness_when_pool_exhausted0B9_
FNDA:0,_RNCNvNtNtNtCsk023ZLJrxN2_7gigastt6server4http5testss_34test_transcribe_stream_pool_closed0B9_
FNDA:1,_RNCNvNtNtNtCsk023ZLJrxN2_7gigastt6server4http5testss_35test_api_pool_closed_error_no_retry0B9_
FNDA:0,_RNCNvNtNtNtCsk023ZLJrxN2_7gigastt6server4http5testss_35test_transcribe_stream_with_metrics0B9_
FNDA:0,_RNCNvNtNtNtCsk023ZLJrxN2_7gigastt6server4http5testss_36test_transcribe_stream_invalid_audio0B9_
FNDA:0,_RNCNvNtNtNtCsk023ZLJrxN2_7gigastt6server4http5testss_38test_readiness_when_shutdown_cancelled0B9_
FNDA:0,_RNCNvNtNtNtCsk023ZLJrxN2_7gigastt6server4http5testss_40test_transcribe_stream_payload_too_large0B9_
FNDA:1,_RNCNvNtNtNtCsk023ZLJrxN2_7gigastt6server4http5testss_43test_api_timeout_error_includes_retry_after0B9_
FNDA:0,_RNvNtNtCsk023ZLJrxN2_7gigastt6server4http10transcribe
FNDA:1,_RNvNtNtCsk023ZLJrxN2_7gigastt6server4http17api_timeout_error
FNDA:0,_RNvNtNtCsk023ZLJrxN2_7gigastt6server4http17transcribe_stream
FNDA:1,_RNvNtNtCsk023ZLJrxN2_7gigastt6server4http21api_pool_closed_error
FNDA:0,_RNvNtNtCsk023ZLJrxN2_7gigastt6server4http6health
FNDA:0,_RNvNtNtCsk023ZLJrxN2_7gigastt6server4http6models
FNDA:0,_RNvNtNtCsk023ZLJrxN2_7gigastt6server4http7metrics
FNDA:1,_RNvNtNtCsk023ZLJrxN2_7gigastt6server4http9api_error
FNDA:0,_RNvNtNtCsk023ZLJrxN2_7gigastt6server4http9readiness
FNDA:0,_RNvNtNtNtCsk023ZLJrxN2_7gigastt6server4http5tests11minimal_wav
FNDA:0,_RNvNtNtNtCsk023ZLJrxN2_7gigastt6server4http5tests11test_engine
FNDA:0,_RNvNtNtNtCsk023ZLJrxN2_7gigastt6server4http5tests12fresh_engine
FNDA:0,_RNvNtNtNtCsk023ZLJrxN2_7gigastt6server4http5tests9short_wav
FNDA:1,_RNvNtNtNtCsk023ZLJrxN2_7gigastt6server4http5testss_20test_api_error_basic
FNDA:0,_RNvNtNtNtCsk023ZLJrxN2_7gigastt6server4http5testss_24test_models_with_metrics
FNDA:0,_RNvNtNtNtCsk023ZLJrxN2_7gigastt6server4http5testss_27test_readiness_with_metrics
FNDA:0,_RNvNtNtNtCsk023ZLJrxN2_7gigastt6server4http5testss_27test_transcribe_pool_closed
FNDA:0,_RNvNtNtNtCsk023ZLJrxN2_7gigastt6server4http5testss_28test_transcribe_with_metrics
FNDA:0,_RNvNtNtNtCsk023ZLJrxN2_7gigastt6server4http5testss_33test_transcribe_payload_too_large
FNDA:1,_RNvNtNtNtCsk023ZLJrxN2_7gigastt6server4http5testss_34test_health_response_serialization
FNDA:0,_RNvNtNtNtCsk023ZLJrxN2_7gigastt6server4http5testss_34test_readiness_when_pool_exhausted
FNDA:0,_RNvNtNtNtCsk023ZLJrxN2_7gigastt6server4http5testss_34test_transcribe_stream_pool_closed
FNDA:1,_RNvNtNtNtCsk023ZLJrxN2_7gigastt6server4http5testss_35test_api_pool_closed_error_no_retry
FNDA:0,_RNvNtNtNtCsk023ZLJrxN2_7gigastt6server4http5testss_35test_transcribe_stream_with_metrics
FNDA:0,_RNvNtNtNtCsk023ZLJrxN2_7gigastt6server4http5testss_36test_transcribe_stream_invalid_audio
FNDA:0,_RNvNtNtNtCsk023ZLJrxN2_7gigastt6server4http5testss_38test_readiness_when_shutdown_cancelled
FNDA:1,_RNvNtNtNtCsk023ZLJrxN2_7gigastt6server4http5testss_38test_transcribe_response_serialization
FNDA:0,_RNvNtNtNtCsk023ZLJrxN2_7gigastt6server4http5testss_40test_transcribe_stream_payload_too_large
FNDA:1,_RNvNtNtNtCsk023ZLJrxN2_7gigastt6server4http5testss_43test_api_timeout_error_includes_retry_after
FNDA:1,_RNvNtNtNtCsk023ZLJrxN2_7gigastt6server4http5testss_43test_readiness_response_ready_serialization
FNDA:1,_RNvNtNtNtCsk023ZLJrxN2_7gigastt6server4http5testss_47test_readiness_response_not_ready_serialization
FNF:61
FNH:13
DA:40,0
DA:41,0
DA:42,0
DA:43,0
DA:44,0
DA:45,0
DA:46,0
DA:47,0
DA:48,0
DA:49,0
DA:50,0
DA:51,0
DA:52,0
DA:53,0
DA:54,0
DA:55,0
DA:56,0
DA:57,0
DA:58,0
DA:60,0
DA:118,1
DA:119,1
DA:120,1
DA:121,1
DA:122,1
DA:123,1
DA:124,1
DA:130,1
DA:131,1
DA:132,1
DA:133,1
DA:134,1
DA:135,1
DA:136,1
DA:137,1
DA:138,1
DA:139,1
DA:140,1
DA:141,1
DA:142,1
DA:143,1
DA:144,1
DA:149,1
DA:150,1
DA:151,1
DA:152,1
DA:153,1
DA:154,1
DA:155,1
DA:156,1
DA:157,1
DA:158,1
DA:175,0
DA:176,0
DA:177,0
DA:178,0
DA:179,0
DA:180,0
DA:181,0
DA:182,0
DA:185,0
DA:186,0
DA:187,0
DA:188,0
DA:189,0
DA:190,0
DA:191,0
DA:192,0
DA:193,0
DA:194,0
DA:195,0
DA:196,0
DA:197,0
DA:198,0
DA:199,0
DA:200,0
DA:201,0
DA:202,0
DA:203,0
DA:204,0
DA:205,0
DA:206,0
DA:207,0
DA:208,0
DA:209,0
DA:210,0
DA:211,0
DA:212,0
DA:213,0
DA:214,0
DA:215,0
DA:216,0
DA:217,0
DA:218,0
DA:219,0
DA:220,0
DA:221,0
DA:222,0
DA:223,0
DA:224,0
DA:225,0
DA:226,0
DA:229,0
DA:230,0
DA:232,0
DA:235,0
DA:236,0
DA:237,0
DA:238,0
DA:239,0
DA:240,0
DA:241,0
DA:242,0
DA:244,0
DA:245,0
DA:246,0
DA:247,0
DA:248,0
DA:250,0
DA:252,0
DA:254,0
DA:255,0
DA:256,0
DA:257,0
DA:258,0
DA:259,0
DA:260,0
DA:261,0
DA:263,0
DA:264,0
DA:266,0
DA:273,0
DA:274,0
DA:275,0
DA:276,0
DA:277,0
DA:278,0
DA:279,0
DA:280,0
DA:281,0
DA:282,0
DA:283,0
DA:291,0
DA:292,0
DA:293,0
DA:294,0
DA:295,0
DA:296,0
DA:297,0
DA:298,0
DA:303,0
DA:304,0
DA:305,0
DA:306,0
DA:308,0
DA:310,0
DA:311,0
DA:312,0
DA:313,0
DA:314,0
DA:315,0
DA:316,0
DA:317,0
DA:318,0
DA:319,0
DA:320,0
DA:321,0
DA:324,0
DA:325,0
DA:326,0
DA:327,0
DA:328,0
DA:329,0
DA:330,0
DA:331,0
DA:333,0
DA:335,0
DA:336,0
DA:337,0
DA:338,0
DA:340,0
DA:344,0
DA:345,0
DA:346,0
DA:347,0
DA:349,0
DA:350,0
DA:351,0
DA:352,0
DA:356,0
DA:357,0
DA:358,0
DA:359,0
DA:360,0
DA:361,0
DA:362,0
DA:363,0
DA:364,0
DA:366,0
DA:367,0
DA:368,0
DA:369,0
DA:370,0
DA:371,0
DA:372,0
DA:373,0
DA:374,0
DA:375,0
DA:376,0
DA:377,0
DA:378,0
DA:380,0
DA:384,0
DA:385,0
DA:386,0
DA:387,0
DA:388,0
DA:389,0
DA:392,0
DA:398,0
DA:399,0
DA:400,0
DA:401,0
DA:402,0
DA:403,0
DA:404,0
DA:405,0
DA:406,0
DA:407,0
DA:408,0
DA:412,0
DA:413,0
DA:414,0
DA:415,0
DA:416,0
DA:417,0
DA:418,0
DA:419,0
DA:425,0
DA:426,0
DA:427,0
DA:428,0
DA:429,0
DA:430,0
DA:431,0
DA:433,0
DA:434,0
DA:436,0
DA:437,0
DA:438,0
DA:439,0
DA:441,0
DA:442,0
DA:444,0
DA:448,0
DA:449,0
DA:450,0
DA:451,0
DA:453,0
DA:455,0
DA:456,0
DA:457,0
DA:458,0
DA:459,0
DA:460,0
DA:461,0
DA:462,0
DA:463,0
DA:464,0
DA:465,0
DA:466,0
DA:469,0
DA:470,0
DA:471,0
DA:472,0
DA:473,0
DA:474,0
DA:475,0
DA:476,0
DA:479,0
DA:480,0
DA:481,0
DA:483,0
DA:488,0
DA:489,0
DA:490,0
DA:491,0
DA:492,0
DA:494,0
DA:495,0
DA:496,0
DA:498,0
DA:499,0
DA:500,0
DA:501,0
DA:502,0
DA:503,0
DA:504,0
DA:505,0
DA:506,0
DA:508,0
DA:509,0
DA:512,0
DA:513,0
DA:514,0
DA:521,0
DA:522,0
DA:523,0
DA:524,0
DA:526,0
DA:527,0
DA:528,0
DA:531,0
DA:534,0
DA:535,0
DA:536,0
DA:537,0
DA:538,0
DA:539,0
DA:541,0
DA:543,0
DA:546,0
DA:547,0
DA:550,0
DA:551,0
DA:555,0
DA:556,0
DA:557,0
DA:558,0
DA:559,0
DA:560,0
DA:567,1
DA:568,1
DA:569,1
DA:570,1
DA:571,1
DA:572,1
DA:573,1
DA:574,1
DA:575,1
DA:576,1
DA:577,1
DA:580,1
DA:581,1
DA:582,1
DA:583,1
DA:584,1
DA:585,1
DA:586,1
DA:587,1
DA:588,1
DA:589,1
DA:590,1
DA:591,1
DA:594,1
DA:595,1
DA:596,1
DA:597,1
DA:598,1
DA:599,1
DA:600,1
DA:601,1
DA:602,1
DA:603,1
DA:604,1
DA:605,1
DA:606,1
DA:609,1
DA:610,1
DA:611,1
DA:612,1
DA:613,1
DA:614,1
DA:615,1
DA:616,1
DA:617,1
DA:618,1
DA:619,1
DA:622,1
DA:623,1
DA:624,1
DA:625,1
DA:626,1
DA:627,1
DA:628,1
DA:629,1
DA:630,1
DA:633,1
DA:634,1
DA:635,1
DA:636,1
DA:637,1
DA:638,1
DA:639,1
DA:640,1
DA:641,1
DA:642,1
DA:643,1
DA:644,1
DA:645,1
DA:647,1
DA:648,1
DA:649,1
DA:650,1
DA:651,1
DA:654,1
DA:655,1
DA:656,1
DA:657,1
DA:658,1
DA:659,1
DA:660,1
DA:661,1
DA:662,1
DA:663,1
DA:667,0
DA:668,0
DA:669,0
DA:670,0
DA:671,0
DA:672,0
DA:673,0
DA:674,0
DA:675,0
DA:676,0
DA:677,0
DA:678,0
DA:679,0
DA:680,0
DA:681,0
DA:682,0
DA:686,0
DA:687,0
DA:688,0
DA:689,0
DA:690,0
DA:691,0
DA:692,0
DA:693,0
DA:694,0
DA:695,0
DA:696,0
DA:697,0
DA:698,0
DA:699,0
DA:700,0
DA:701,0
DA:702,0
DA:703,0
DA:704,0
DA:708,0
DA:709,0
DA:710,0
DA:711,0
DA:712,0
DA:713,0
DA:714,0
DA:715,0
DA:716,0
DA:717,0
DA:718,0
DA:719,0
DA:720,0
DA:721,0
DA:722,0
DA:723,0
DA:724,0
DA:725,0
DA:729,0
DA:730,0
DA:731,0
DA:732,0
DA:733,0
DA:734,0
DA:735,0
DA:736,0
DA:737,0
DA:738,0
DA:739,0
DA:740,0
DA:744,0
DA:745,0
DA:746,0
DA:747,0
DA:748,0
DA:749,0
DA:750,0
DA:751,0
DA:752,0
DA:753,0
DA:754,0
DA:758,0
DA:759,0
DA:760,0
DA:761,0
DA:762,0
DA:763,0
DA:764,0
DA:765,0
DA:766,0
DA:767,0
DA:768,0
DA:769,0
DA:770,0
DA:771,0
DA:772,0
DA:773,0
DA:774,0
DA:778,0
DA:779,0
DA:780,0
DA:781,0
DA:782,0
DA:783,0
DA:784,0
DA:785,0
DA:786,0
DA:787,0
DA:788,0
DA:789,0
DA:790,0
DA:791,0
DA:792,0
DA:796,0
DA:797,0
DA:798,0
DA:799,0
DA:800,0
DA:801,0
DA:802,0
DA:803,0
DA:804,0
DA:805,0
DA:806,0
DA:807,0
DA:808,0
DA:809,0
DA:810,0
DA:811,0
DA:812,0
DA:813,0
DA:817,0
DA:818,0
DA:819,0
DA:820,0
DA:821,0
DA:822,0
DA:823,0
DA:824,0
DA:825,0
DA:826,0
DA:827,0
DA:828,0
DA:829,0
DA:830,0
DA:831,0
DA:832,0
DA:833,0
DA:837,0
DA:838,0
DA:839,0
DA:840,0
DA:841,0
DA:842,0
DA:843,0
DA:844,0
DA:845,0
DA:846,0
DA:847,0
DA:848,0
DA:849,0
DA:850,0
DA:854,0
DA:855,0
DA:856,0
DA:857,0
DA:858,0
DA:859,0
DA:860,0
DA:861,0
DA:862,0
DA:863,0
DA:864,0
DA:865,0
DA:866,0
DA:867,0
DA:869,0
DA:872,0
DA:873,0
DA:874,0
DA:875,0
DA:876,0
DA:878,0
DA:879,0
DA:880,0
DA:882,0
DA:883,0
DA:884,0
DA:886,0
DA:887,0
DA:888,0
DA:889,0
DA:890,0
DA:891,0
DA:892,0
DA:893,0
DA:894,0
DA:895,0
DA:896,0
DA:897,0
DA:898,0
DA:899,0
DA:900,0
DA:901,0
DA:902,0
DA:903,0
DA:904,0
DA:905,0
DA:906,0
DA:908,0
DA:909,0
DA:910,0
DA:911,0
DA:912,0
DA:913,0
DA:914,0
DA:915,0
DA:916,0
DA:917,0
DA:918,0
DA:919,0
DA:920,0
DA:921,0
DA:922,0
DA:923,0
DA:924,0
DA:925,0
DA:926,0
DA:927,0
DA:928,0
DA:929,0
DA:930,0
DA:931,0
DA:932,0
BRF:0
BRH:0
LF:704
LH:122
end_of_record
SF:/Users/ekhodzitsky/Documents/personal/gigastt/crates/gigastt/src/server/metrics.rs
FN:164,_RNvMNtNtCsbd9nAVVXtRC_7gigastt6server7metricsNtB2_15MetricsRegistry11counter_inc
FN:122,_RNvMNtNtCsbd9nAVVXtRC_7gigastt6server7metricsNtB2_15MetricsRegistry14register_gauge
FN:173,_RNvMNtNtCsbd9nAVVXtRC_7gigastt6server7metricsNtB2_15MetricsRegistry16histogram_record
FN:145,_RNvMNtNtCsbd9nAVVXtRC_7gigastt6server7metricsNtB2_15MetricsRegistry16register_counter
FN:206,_RNvMNtNtCsbd9nAVVXtRC_7gigastt6server7metricsNtB2_15MetricsRegistry17render_prometheus
FN:153,_RNvMNtNtCsbd9nAVVXtRC_7gigastt6server7metricsNtB2_15MetricsRegistry18register_histogram
FN:117,_RNvMNtNtCsbd9nAVVXtRC_7gigastt6server7metricsNtB2_15MetricsRegistry3new
FN:136,_RNvMNtNtCsbd9nAVVXtRC_7gigastt6server7metricsNtB2_15MetricsRegistry9gauge_inc
FN:128,_RNvMNtNtCsbd9nAVVXtRC_7gigastt6server7metricsNtB2_15MetricsRegistry9gauge_set
FN:38,_RNvNtNtCsbd9nAVVXtRC_7gigastt6server7metrics11sort_labels
FN:317,_RNvNtNtCsbd9nAVVXtRC_7gigastt6server7metrics12fmt_f64_prom
FN:47,_RNvNtNtCsbd9nAVVXtRC_7gigastt6server7metrics13format_labels
FN:304,_RNvNtNtCsbd9nAVVXtRC_7gigastt6server7metrics17trim_outer_braces
FN:184,_RNCNvMNtNtCsbd9nAVVXtRC_7gigastt6server7metricsNtB4_15MetricsRegistry16histogram_record0B8_
FN:155,_RNCNvMNtNtCsbd9nAVVXtRC_7gigastt6server7metricsNtB4_15MetricsRegistry18register_histogram0B8_
FN:41,_RNCNvNtNtCsbd9nAVVXtRC_7gigastt6server7metrics11sort_labels0B7_
FN:43,_RNCNvNtNtCsbd9nAVVXtRC_7gigastt6server7metrics11sort_labelss_0B7_
FN:310,_RNCNvNtNtCsbd9nAVVXtRC_7gigastt6server7metrics17trim_outer_braces0B7_
FN:335,_RNvNtNtNtCsk023ZLJrxN2_7gigastt6server7metrics5tests8registry
FN:416,_RNvNtNtNtCsk023ZLJrxN2_7gigastt6server7metrics5testss_19test_label_escaping
FN:488,_RNvNtNtNtCsk023ZLJrxN2_7gigastt6server7metrics5testss_22test_trim_outer_braces
FN:427,_RNvNtNtNtCsk023ZLJrxN2_7gigastt6server7metrics5testss_24test_empty_labels_render
FN:406,_RNvNtNtNtCsk023ZLJrxN2_7gigastt6server7metrics5testss_26test_label_ordering_stable
FN:350,_RNvNtNtNtCsk023ZLJrxN2_7gigastt6server7metrics5testss_26test_render_empty_registry
FN:435,_RNvNtNtNtCsk023ZLJrxN2_7gigastt6server7metrics5testss_29test_gauge_set_inc_and_render
FN:480,_RNvNtNtNtCsk023ZLJrxN2_7gigastt6server7metrics5testss_32test_fmt_f64_prom_special_values
FN:377,_RNvNtNtNtCsk023ZLJrxN2_7gigastt6server7metrics5testss_32test_histogram_bucket_cumulative
FN:356,_RNvNtNtNtCsk023ZLJrxN2_7gigastt6server7metrics5testss_33test_counter_increment_and_render
FN:450,_RNvNtNtNtCsk023ZLJrxN2_7gigastt6server7metrics5testss_38test_histogram_sum_tracks_observations
FN:462,_RNvNtNtNtCsk023ZLJrxN2_7gigastt6server7metrics5testss_42test_histogram_bucket_resize_on_reregister
FN:164,_RNvMNtNtCsk023ZLJrxN2_7gigastt6server7metricsNtB2_15MetricsRegistry11counter_inc
FN:122,_RNvMNtNtCsk023ZLJrxN2_7gigastt6server7metricsNtB2_15MetricsRegistry14register_gauge
FN:173,_RNvMNtNtCsk023ZLJrxN2_7gigastt6server7metricsNtB2_15MetricsRegistry16histogram_record
FN:145,_RNvMNtNtCsk023ZLJrxN2_7gigastt6server7metricsNtB2_15MetricsRegistry16register_counter
FN:206,_RNvMNtNtCsk023ZLJrxN2_7gigastt6server7metricsNtB2_15MetricsRegistry17render_prometheus
FN:153,_RNvMNtNtCsk023ZLJrxN2_7gigastt6server7metricsNtB2_15MetricsRegistry18register_histogram
FN:117,_RNvMNtNtCsk023ZLJrxN2_7gigastt6server7metricsNtB2_15MetricsRegistry3new
FN:136,_RNvMNtNtCsk023ZLJrxN2_7gigastt6server7metricsNtB2_15MetricsRegistry9gauge_inc
FN:128,_RNvMNtNtCsk023ZLJrxN2_7gigastt6server7metricsNtB2_15MetricsRegistry9gauge_set
FN:38,_RNvNtNtCsk023ZLJrxN2_7gigastt6server7metrics11sort_labels
FN:317,_RNvNtNtCsk023ZLJrxN2_7gigastt6server7metrics12fmt_f64_prom
FN:47,_RNvNtNtCsk023ZLJrxN2_7gigastt6server7metrics13format_labels
FN:304,_RNvNtNtCsk023ZLJrxN2_7gigastt6server7metrics17trim_outer_braces
FN:184,_RNCNvMNtNtCsk023ZLJrxN2_7gigastt6server7metricsNtB4_15MetricsRegistry16histogram_record0B8_
FN:155,_RNCNvMNtNtCsk023ZLJrxN2_7gigastt6server7metricsNtB4_15MetricsRegistry18register_histogram0B8_
FN:41,_RNCNvNtNtCsk023ZLJrxN2_7gigastt6server7metrics11sort_labels0B7_
FN:43,_RNCNvNtNtCsk023ZLJrxN2_7gigastt6server7metrics11sort_labelss_0B7_
FN:310,_RNCNvNtNtCsk023ZLJrxN2_7gigastt6server7metrics17trim_outer_braces0B7_
FNDA:0,_RNvMNtNtCsbd9nAVVXtRC_7gigastt6server7metricsNtB2_15MetricsRegistry11counter_inc
FNDA:0,_RNvMNtNtCsbd9nAVVXtRC_7gigastt6server7metricsNtB2_15MetricsRegistry14register_gauge
FNDA:0,_RNvMNtNtCsbd9nAVVXtRC_7gigastt6server7metricsNtB2_15MetricsRegistry16histogram_record
FNDA:0,_RNvMNtNtCsbd9nAVVXtRC_7gigastt6server7metricsNtB2_15MetricsRegistry16register_counter
FNDA:0,_RNvMNtNtCsbd9nAVVXtRC_7gigastt6server7metricsNtB2_15MetricsRegistry17render_prometheus
FNDA:0,_RNvMNtNtCsbd9nAVVXtRC_7gigastt6server7metricsNtB2_15MetricsRegistry18register_histogram
FNDA:0,_RNvMNtNtCsbd9nAVVXtRC_7gigastt6server7metricsNtB2_15MetricsRegistry3new
FNDA:0,_RNvMNtNtCsbd9nAVVXtRC_7gigastt6server7metricsNtB2_15MetricsRegistry9gauge_inc
FNDA:0,_RNvMNtNtCsbd9nAVVXtRC_7gigastt6server7metricsNtB2_15MetricsRegistry9gauge_set
FNDA:0,_RNvNtNtCsbd9nAVVXtRC_7gigastt6server7metrics11sort_labels
FNDA:0,_RNvNtNtCsbd9nAVVXtRC_7gigastt6server7metrics12fmt_f64_prom
FNDA:0,_RNvNtNtCsbd9nAVVXtRC_7gigastt6server7metrics13format_labels
FNDA:0,_RNvNtNtCsbd9nAVVXtRC_7gigastt6server7metrics17trim_outer_braces
FNDA:0,_RNCNvMNtNtCsbd9nAVVXtRC_7gigastt6server7metricsNtB4_15MetricsRegistry16histogram_record0B8_
FNDA:0,_RNCNvMNtNtCsbd9nAVVXtRC_7gigastt6server7metricsNtB4_15MetricsRegistry18register_histogram0B8_
FNDA:0,_RNCNvNtNtCsbd9nAVVXtRC_7gigastt6server7metrics11sort_labels0B7_
FNDA:0,_RNCNvNtNtCsbd9nAVVXtRC_7gigastt6server7metrics11sort_labelss_0B7_
FNDA:0,_RNCNvNtNtCsbd9nAVVXtRC_7gigastt6server7metrics17trim_outer_braces0B7_
FNDA:2,_RNvNtNtNtCsk023ZLJrxN2_7gigastt6server7metrics5tests8registry
FNDA:1,_RNvNtNtNtCsk023ZLJrxN2_7gigastt6server7metrics5testss_19test_label_escaping
FNDA:1,_RNvNtNtNtCsk023ZLJrxN2_7gigastt6server7metrics5testss_22test_trim_outer_braces
FNDA:1,_RNvNtNtNtCsk023ZLJrxN2_7gigastt6server7metrics5testss_24test_empty_labels_render
FNDA:1,_RNvNtNtNtCsk023ZLJrxN2_7gigastt6server7metrics5testss_26test_label_ordering_stable
FNDA:1,_RNvNtNtNtCsk023ZLJrxN2_7gigastt6server7metrics5testss_26test_render_empty_registry
FNDA:1,_RNvNtNtNtCsk023ZLJrxN2_7gigastt6server7metrics5testss_29test_gauge_set_inc_and_render
FNDA:1,_RNvNtNtNtCsk023ZLJrxN2_7gigastt6server7metrics5testss_32test_fmt_f64_prom_special_values
FNDA:1,_RNvNtNtNtCsk023ZLJrxN2_7gigastt6server7metrics5testss_32test_histogram_bucket_cumulative
FNDA:1,_RNvNtNtNtCsk023ZLJrxN2_7gigastt6server7metrics5testss_33test_counter_increment_and_render
FNDA:1,_RNvNtNtNtCsk023ZLJrxN2_7gigastt6server7metrics5testss_38test_histogram_sum_tracks_observations
FNDA:1,_RNvNtNtNtCsk023ZLJrxN2_7gigastt6server7metrics5testss_42test_histogram_bucket_resize_on_reregister
FNDA:6,_RNvMNtNtCsk023ZLJrxN2_7gigastt6server7metricsNtB2_15MetricsRegistry11counter_inc
FNDA:1,_RNvMNtNtCsk023ZLJrxN2_7gigastt6server7metricsNtB2_15MetricsRegistry14register_gauge
FNDA:9,_RNvMNtNtCsk023ZLJrxN2_7gigastt6server7metricsNtB2_15MetricsRegistry16histogram_record
FNDA:2,_RNvMNtNtCsk023ZLJrxN2_7gigastt6server7metricsNtB2_15MetricsRegistry16register_counter
FNDA:10,_RNvMNtNtCsk023ZLJrxN2_7gigastt6server7metricsNtB2_15MetricsRegistry17render_prometheus
FNDA:5,_RNvMNtNtCsk023ZLJrxN2_7gigastt6server7metricsNtB2_15MetricsRegistry18register_histogram
FNDA:9,_RNvMNtNtCsk023ZLJrxN2_7gigastt6server7metricsNtB2_15MetricsRegistry3new
FNDA:1,_RNvMNtNtCsk023ZLJrxN2_7gigastt6server7metricsNtB2_15MetricsRegistry9gauge_inc
FNDA:1,_RNvMNtNtCsk023ZLJrxN2_7gigastt6server7metricsNtB2_15MetricsRegistry9gauge_set
FNDA:17,_RNvNtNtCsk023ZLJrxN2_7gigastt6server7metrics11sort_labels
FNDA:24,_RNvNtNtCsk023ZLJrxN2_7gigastt6server7metrics12fmt_f64_prom
FNDA:9,_RNvNtNtCsk023ZLJrxN2_7gigastt6server7metrics13format_labels
FNDA:7,_RNvNtNtCsk023ZLJrxN2_7gigastt6server7metrics17trim_outer_braces
FNDA:3,_RNCNvMNtNtCsk023ZLJrxN2_7gigastt6server7metricsNtB4_15MetricsRegistry16histogram_record0B8_
FNDA:25,_RNCNvMNtNtCsk023ZLJrxN2_7gigastt6server7metricsNtB4_15MetricsRegistry18register_histogram0B8_
FNDA:15,_RNCNvNtNtCsk023ZLJrxN2_7gigastt6server7metrics11sort_labels0B7_
FNDA:6,_RNCNvNtNtCsk023ZLJrxN2_7gigastt6server7metrics11sort_labelss_0B7_
FNDA:3,_RNCNvNtNtCsk023ZLJrxN2_7gigastt6server7metrics17trim_outer_braces0B7_
FNF:30
FNH:30
DA:38,17
DA:39,17
DA:40,17
DA:41,17
DA:42,17
DA:43,17
DA:44,17
DA:45,17
DA:47,9
DA:48,9
DA:49,5
DA:50,4
DA:51,4
DA:52,7
DA:53,7
DA:54,3
DA:55,4
DA:56,7
DA:57,7
DA:62,25
DA:63,25
DA:64,1
DA:65,1
DA:66,1
DA:67,22
DA:70,7
DA:72,4
DA:73,4
DA:74,9
DA:117,9
DA:118,9
DA:119,9
DA:122,1
DA:123,1
DA:124,1
DA:125,1
DA:128,1
DA:129,1
DA:130,1
DA:131,1
DA:132,1
DA:133,1
DA:136,1
DA:137,1
DA:138,1
DA:139,1
DA:140,1
DA:141,1
DA:145,2
DA:146,2
DA:147,2
DA:148,2
DA:153,5
DA:154,5
DA:155,25
DA:156,5
DA:157,5
DA:158,5
DA:159,5
DA:160,5
DA:161,5
DA:164,6
DA:165,6
DA:166,6
DA:167,6
DA:168,6
DA:169,6
DA:173,9
DA:174,9
DA:175,9
DA:176,9
DA:177,9
DA:178,0
DA:179,9
DA:180,9
DA:181,9
DA:182,9
DA:183,9
DA:184,3
DA:187,3
DA:191,9
DA:192,1
DA:193,8
DA:194,56
DA:195,56
DA:196,33
DA:197,33
DA:199,9
DA:200,9
DA:201,9
DA:206,10
DA:207,10
DA:211,10
DA:212,10
DA:213,10
DA:214,10
DA:215,5
DA:216,5
DA:217,2
DA:218,3
DA:219,5
DA:220,5
DA:221,5
DA:222,5
DA:223,4
DA:224,4
DA:225,4
DA:226,4
DA:227,4
DA:228,4
DA:229,4
DA:230,5
DA:232,10
DA:234,10
DA:235,10
DA:236,10
DA:237,10
DA:238,2
DA:239,2
DA:240,2
DA:241,2
DA:242,2
DA:243,2
DA:244,2
DA:245,2
DA:246,2
DA:247,2
DA:248,2
DA:249,2
DA:250,2
DA:251,2
DA:252,2
DA:253,2
DA:255,10
DA:257,10
DA:258,10
DA:259,10
DA:260,10
DA:261,4
DA:262,4
DA:263,4
DA:264,4
DA:265,4
DA:266,4
DA:267,4
DA:268,4
DA:269,3
DA:275,3
DA:276,3
DA:277,3
DA:278,17
DA:279,17
DA:280,17
DA:281,17
DA:282,17
DA:283,17
DA:284,17
DA:285,17
DA:286,3
DA:287,3
DA:291,3
DA:292,3
DA:294,4
DA:297,10
DA:298,10
DA:304,7
DA:305,7
DA:306,3
DA:307,4
DA:308,4
DA:309,4
DA:310,4
DA:311,4
DA:312,4
DA:313,7
DA:317,24
DA:318,24
DA:319,2
DA:320,1
DA:322,1
DA:324,22
DA:325,22
DA:326,1
DA:327,21
DA:328,21
DA:329,24
DA:335,2
DA:336,2
DA:337,2
DA:338,2
DA:339,2
DA:341,2
DA:342,2
DA:343,2
DA:344,2
DA:346,2
DA:347,2
DA:350,1
DA:351,1
DA:352,1
DA:353,1
DA:356,1
DA:357,1
DA:358,1
DA:359,1
DA:360,1
DA:363,1
DA:364,1
DA:365,1
DA:368,1
DA:369,1
DA:370,1
DA:371,1
DA:372,1
DA:373,1
DA:374,1
DA:377,1
DA:378,1
DA:379,1
DA:380,4
DA:381,4
DA:382,4
DA:383,1
DA:388,1
DA:389,1
DA:390,1
DA:391,1
DA:392,1
DA:393,1
DA:394,1
DA:395,1
DA:396,1
DA:397,1
DA:399,1
DA:400,1
DA:401,1
DA:402,1
DA:403,1
DA:406,1
DA:407,1
DA:408,1
DA:409,1
DA:410,1
DA:412,1
DA:413,1
DA:416,1
DA:417,1
DA:418,1
DA:419,1
DA:420,1
DA:421,1
DA:424,1
DA:427,1
DA:428,1
DA:429,1
DA:430,1
DA:431,1
DA:432,1
DA:435,1
DA:436,1
DA:437,1
DA:438,1
DA:439,1
DA:440,1
DA:441,1
DA:442,1
DA:444,1
DA:445,1
DA:446,1
DA:447,1
DA:450,1
DA:451,1
DA:452,1
DA:453,1
DA:454,1
DA:455,1
DA:456,1
DA:457,1
DA:458,1
DA:459,1
DA:462,1
DA:463,1
DA:465,1
DA:466,1
DA:468,1
DA:469,1
DA:470,1
DA:472,1
DA:473,1
DA:475,1
DA:476,1
DA:477,1
DA:480,1
DA:481,1
DA:482,1
DA:483,1
DA:484,1
DA:485,1
DA:488,1
DA:489,1
DA:490,1
DA:491,1
DA:492,1
DA:493,1
BRF:0
BRH:0
LF:308
LH:307
end_of_record
SF:/Users/ekhodzitsky/Documents/personal/gigastt/crates/gigastt/src/server/middleware.rs
FN:85,_RNvNtNtCsbd9nAVVXtRC_7gigastt6server10middleware17origin_middleware
FN:54,_RNvNtNtCsbd9nAVVXtRC_7gigastt6server10middleware21request_id_middleware
FN:14,_RNvNtNtCsbd9nAVVXtRC_7gigastt6server10middleware23http_metrics_middleware
FN:104,_RNCNCNvNtNtCsbd9nAVVXtRC_7gigastt6server10middleware17origin_middleware00B9_
FN:61,_RNCNCNvNtNtCsbd9nAVVXtRC_7gigastt6server10middleware21request_id_middleware00B9_
FN:63,_RNCNCNvNtNtCsbd9nAVVXtRC_7gigastt6server10middleware21request_id_middleware0s0_0B9_
FN:62,_RNCNCNvNtNtCsbd9nAVVXtRC_7gigastt6server10middleware21request_id_middleware0s_0B9_
FN:89,_RNCNvNtNtCsbd9nAVVXtRC_7gigastt6server10middleware17origin_middleware0B7_
FN:57,_RNCNvNtNtCsbd9nAVVXtRC_7gigastt6server10middleware21request_id_middleware0B7_
FN:18,_RNCNvNtNtCsbd9nAVVXtRC_7gigastt6server10middleware23http_metrics_middleware0B7_
FN:104,_RNCNCNvNtNtCsk023ZLJrxN2_7gigastt6server10middleware17origin_middleware00B9_
FN:61,_RNCNCNvNtNtCsk023ZLJrxN2_7gigastt6server10middleware21request_id_middleware00B9_
FN:63,_RNCNCNvNtNtCsk023ZLJrxN2_7gigastt6server10middleware21request_id_middleware0s0_0B9_
FN:62,_RNCNCNvNtNtCsk023ZLJrxN2_7gigastt6server10middleware21request_id_middleware0s_0B9_
FN:89,_RNCNvNtNtCsk023ZLJrxN2_7gigastt6server10middleware17origin_middleware0B7_
FN:57,_RNCNvNtNtCsk023ZLJrxN2_7gigastt6server10middleware21request_id_middleware0B7_
FN:18,_RNCNvNtNtCsk023ZLJrxN2_7gigastt6server10middleware23http_metrics_middleware0B7_
FN:234,_RNCNCNCNvNtNtNtCsk023ZLJrxN2_7gigastt6server10middleware5testss_34test_origin_middleware_integration000Bd_
FN:239,_RNCNCNCNvNtNtNtCsk023ZLJrxN2_7gigastt6server10middleware5testss_34test_origin_middleware_integration0s0_00Bd_
FN:238,_RNCNCNCNvNtNtNtCsk023ZLJrxN2_7gigastt6server10middleware5testss_34test_origin_middleware_integration0s_00Bd_
FN:157,_RNCNCNCNvNtNtNtCsk023ZLJrxN2_7gigastt6server10middleware5testss_39test_request_id_middleware_generates_id000Bd_
FN:191,_RNCNCNCNvNtNtNtCsk023ZLJrxN2_7gigastt6server10middleware5testss_43test_request_id_middleware_echoes_client_id000Bd_
FN:232,_RNCNCNvNtNtNtCsk023ZLJrxN2_7gigastt6server10middleware5testss_34test_origin_middleware_integration00Bb_
FN:239,_RNCNCNvNtNtNtCsk023ZLJrxN2_7gigastt6server10middleware5testss_34test_origin_middleware_integration0s0_0Bb_
FN:244,_RNCNCNvNtNtNtCsk023ZLJrxN2_7gigastt6server10middleware5testss_34test_origin_middleware_integration0s1_0Bb_
FN:290,_RNCNCNvNtNtNtCsk023ZLJrxN2_7gigastt6server10middleware5testss_34test_origin_middleware_integration0s2_0Bb_
FN:238,_RNCNCNvNtNtNtCsk023ZLJrxN2_7gigastt6server10middleware5testss_34test_origin_middleware_integration0s_0Bb_
FN:157,_RNCNCNvNtNtNtCsk023ZLJrxN2_7gigastt6server10middleware5testss_39test_request_id_middleware_generates_id00Bb_
FN:162,_RNCNCNvNtNtNtCsk023ZLJrxN2_7gigastt6server10middleware5testss_39test_request_id_middleware_generates_id0s_0Bb_
FN:191,_RNCNCNvNtNtNtCsk023ZLJrxN2_7gigastt6server10middleware5testss_43test_request_id_middleware_echoes_client_id00Bb_
FN:196,_RNCNCNvNtNtNtCsk023ZLJrxN2_7gigastt6server10middleware5testss_43test_request_id_middleware_echoes_client_id0s_0Bb_
FN:220,_RNCNvNtNtNtCsk023ZLJrxN2_7gigastt6server10middleware5testss_34test_origin_middleware_integration0B9_
FN:152,_RNCNvNtNtNtCsk023ZLJrxN2_7gigastt6server10middleware5testss_39test_request_id_middleware_generates_id0B9_
FN:186,_RNCNvNtNtNtCsk023ZLJrxN2_7gigastt6server10middleware5testss_43test_request_id_middleware_echoes_client_id0B9_
FN:220,_RNvNtNtNtCsk023ZLJrxN2_7gigastt6server10middleware5testss_34test_origin_middleware_integration
FN:152,_RNvNtNtNtCsk023ZLJrxN2_7gigastt6server10middleware5testss_39test_request_id_middleware_generates_id
FN:186,_RNvNtNtNtCsk023ZLJrxN2_7gigastt6server10middleware5testss_43test_request_id_middleware_echoes_client_id
FN:85,_RNvNtNtCsk023ZLJrxN2_7gigastt6server10middleware17origin_middleware
FN:54,_RNvNtNtCsk023ZLJrxN2_7gigastt6server10middleware21request_id_middleware
FN:14,_RNvNtNtCsk023ZLJrxN2_7gigastt6server10middleware23http_metrics_middleware
FNDA:0,_RNvNtNtCsbd9nAVVXtRC_7gigastt6server10middleware17origin_middleware
FNDA:0,_RNvNtNtCsbd9nAVVXtRC_7gigastt6server10middleware21request_id_middleware
FNDA:0,_RNvNtNtCsbd9nAVVXtRC_7gigastt6server10middleware23http_metrics_middleware
FNDA:0,_RNCNCNvNtNtCsbd9nAVVXtRC_7gigastt6server10middleware17origin_middleware00B9_
FNDA:0,_RNCNCNvNtNtCsbd9nAVVXtRC_7gigastt6server10middleware21request_id_middleware00B9_
FNDA:0,_RNCNCNvNtNtCsbd9nAVVXtRC_7gigastt6server10middleware21request_id_middleware0s0_0B9_
FNDA:0,_RNCNCNvNtNtCsbd9nAVVXtRC_7gigastt6server10middleware21request_id_middleware0s_0B9_
FNDA:0,_RNCNvNtNtCsbd9nAVVXtRC_7gigastt6server10middleware17origin_middleware0B7_
FNDA:0,_RNCNvNtNtCsbd9nAVVXtRC_7gigastt6server10middleware21request_id_middleware0B7_
FNDA:0,_RNCNvNtNtCsbd9nAVVXtRC_7gigastt6server10middleware23http_metrics_middleware0B7_
FNDA:3,_RNCNCNvNtNtCsk023ZLJrxN2_7gigastt6server10middleware17origin_middleware00B9_
FNDA:1,_RNCNCNvNtNtCsk023ZLJrxN2_7gigastt6server10middleware21request_id_middleware00B9_
FNDA:1,_RNCNCNvNtNtCsk023ZLJrxN2_7gigastt6server10middleware21request_id_middleware0s0_0B9_
FNDA:1,_RNCNCNvNtNtCsk023ZLJrxN2_7gigastt6server10middleware21request_id_middleware0s_0B9_
FNDA:5,_RNCNvNtNtCsk023ZLJrxN2_7gigastt6server10middleware17origin_middleware0B7_
FNDA:2,_RNCNvNtNtCsk023ZLJrxN2_7gigastt6server10middleware21request_id_middleware0B7_
FNDA:0,_RNCNvNtNtCsk023ZLJrxN2_7gigastt6server10middleware23http_metrics_middleware0B7_
FNDA:5,_RNCNCNCNvNtNtNtCsk023ZLJrxN2_7gigastt6server10middleware5testss_34test_origin_middleware_integration000Bd_
FNDA:2,_RNCNCNCNvNtNtNtCsk023ZLJrxN2_7gigastt6server10middleware5testss_34test_origin_middleware_integration0s0_00Bd_
FNDA:1,_RNCNCNCNvNtNtNtCsk023ZLJrxN2_7gigastt6server10middleware5testss_34test_origin_middleware_integration0s_00Bd_
FNDA:1,_RNCNCNCNvNtNtNtCsk023ZLJrxN2_7gigastt6server10middleware5testss_39test_request_id_middleware_generates_id000Bd_
FNDA:1,_RNCNCNCNvNtNtNtCsk023ZLJrxN2_7gigastt6server10middleware5testss_43test_request_id_middleware_echoes_client_id000Bd_
FNDA:5,_RNCNCNvNtNtNtCsk023ZLJrxN2_7gigastt6server10middleware5testss_34test_origin_middleware_integration00Bb_
FNDA:2,_RNCNCNvNtNtNtCsk023ZLJrxN2_7gigastt6server10middleware5testss_34test_origin_middleware_integration0s0_0Bb_
FNDA:1,_RNCNCNvNtNtNtCsk023ZLJrxN2_7gigastt6server10middleware5testss_34test_origin_middleware_integration0s1_0Bb_
FNDA:1,_RNCNCNvNtNtNtCsk023ZLJrxN2_7gigastt6server10middleware5testss_34test_origin_middleware_integration0s2_0Bb_
FNDA:1,_RNCNCNvNtNtNtCsk023ZLJrxN2_7gigastt6server10middleware5testss_34test_origin_middleware_integration0s_0Bb_
FNDA:1,_RNCNCNvNtNtNtCsk023ZLJrxN2_7gigastt6server10middleware5testss_39test_request_id_middleware_generates_id00Bb_
FNDA:1,_RNCNCNvNtNtNtCsk023ZLJrxN2_7gigastt6server10middleware5testss_39test_request_id_middleware_generates_id0s_0Bb_
FNDA:1,_RNCNCNvNtNtNtCsk023ZLJrxN2_7gigastt6server10middleware5testss_43test_request_id_middleware_echoes_client_id00Bb_
FNDA:1,_RNCNCNvNtNtNtCsk023ZLJrxN2_7gigastt6server10middleware5testss_43test_request_id_middleware_echoes_client_id0s_0Bb_
FNDA:1,_RNCNvNtNtNtCsk023ZLJrxN2_7gigastt6server10middleware5testss_34test_origin_middleware_integration0B9_
FNDA:1,_RNCNvNtNtNtCsk023ZLJrxN2_7gigastt6server10middleware5testss_39test_request_id_middleware_generates_id0B9_
FNDA:1,_RNCNvNtNtNtCsk023ZLJrxN2_7gigastt6server10middleware5testss_43test_request_id_middleware_echoes_client_id0B9_
FNDA:1,_RNvNtNtNtCsk023ZLJrxN2_7gigastt6server10middleware5testss_34test_origin_middleware_integration
FNDA:1,_RNvNtNtNtCsk023ZLJrxN2_7gigastt6server10middleware5testss_39test_request_id_middleware_generates_id
FNDA:1,_RNvNtNtNtCsk023ZLJrxN2_7gigastt6server10middleware5testss_43test_request_id_middleware_echoes_client_id
FNDA:5,_RNvNtNtCsk023ZLJrxN2_7gigastt6server10middleware17origin_middleware
FNDA:2,_RNvNtNtCsk023ZLJrxN2_7gigastt6server10middleware21request_id_middleware
FNDA:0,_RNvNtNtCsk023ZLJrxN2_7gigastt6server10middleware23http_metrics_middleware
FNF:30
FNH:28
DA:14,0
DA:15,0
DA:16,0
DA:17,0
DA:18,0
DA:19,0
DA:20,0
DA:22,0
DA:23,0
DA:24,0
DA:26,0
DA:27,0
DA:28,0
DA:29,0
DA:30,0
DA:31,0
DA:32,0
DA:33,0
DA:34,0
DA:35,0
DA:36,0
DA:37,0
DA:38,0
DA:39,0
DA:40,0
DA:41,0
DA:42,0
DA:43,0
DA:44,0
DA:45,0
DA:46,0
DA:47,0
DA:48,0
DA:49,0
DA:54,2
DA:55,2
DA:56,2
DA:57,2
DA:58,2
DA:59,2
DA:60,2
DA:61,2
DA:62,2
DA:63,2
DA:65,2
DA:66,2
DA:70,2
DA:77,2
DA:79,2
DA:80,2
DA:81,2
DA:82,2
DA:83,2
DA:85,5
DA:86,5
DA:87,5
DA:88,5
DA:89,5
DA:96,5
DA:97,5
DA:98,1
DA:99,4
DA:101,4
DA:102,4
DA:103,4
DA:104,4
DA:105,4
DA:107,4
DA:108,1
DA:109,1
DA:110,1
DA:111,1
DA:112,1
DA:113,1
DA:114,1
DA:115,1
DA:116,1
DA:117,1
DA:118,1
DA:120,1
DA:121,1
DA:122,1
DA:124,1
DA:125,1
DA:128,2
DA:129,2
DA:130,2
DA:135,2
DA:136,2
DA:137,2
DA:138,2
DA:139,2
DA:140,2
DA:141,2
DA:142,2
DA:145,5
DA:152,1
DA:156,1
DA:157,2
DA:158,1
DA:160,1
DA:161,1
DA:162,1
DA:163,1
DA:164,0
DA:165,1
DA:167,1
DA:168,1
DA:169,1
DA:170,1
DA:171,1
DA:172,1
DA:173,1
DA:174,1
DA:175,1
DA:176,1
DA:177,1
DA:178,1
DA:179,1
DA:180,1
DA:181,1
DA:182,1
DA:183,1
DA:186,1
DA:190,1
DA:191,2
DA:192,1
DA:194,1
DA:195,1
DA:196,1
DA:197,1
DA:198,0
DA:199,1
DA:201,1
DA:202,1
DA:203,1
DA:204,1
DA:205,1
DA:206,1
DA:207,1
DA:208,1
DA:209,1
DA:210,1
DA:211,1
DA:212,1
DA:213,1
DA:214,1
DA:215,1
DA:216,1
DA:217,1
DA:220,1
DA:229,1
DA:230,1
DA:231,1
DA:232,5
DA:233,5
DA:234,5
DA:235,5
DA:237,1
DA:238,2
DA:239,4
DA:240,1
DA:242,1
DA:243,1
DA:244,1
DA:245,1
DA:246,0
DA:249,1
DA:251,1
DA:252,1
DA:255,1
DA:256,1
DA:257,1
DA:258,1
DA:259,1
DA:260,1
DA:261,1
DA:264,1
DA:265,1
DA:266,1
DA:267,1
DA:268,1
DA:269,1
DA:270,1
DA:271,1
DA:275,1
DA:276,1
DA:277,1
DA:280,1
DA:281,1
DA:282,1
DA:283,1
DA:284,1
DA:285,1
DA:286,1
DA:287,1
DA:288,1
DA:289,1
DA:290,1
DA:297,1
DA:298,1
DA:299,1
DA:300,1
DA:301,1
DA:302,1
DA:305,1
DA:306,1
DA:307,1
DA:308,1
DA:309,1
DA:310,1
DA:311,1
DA:312,1
DA:313,1
DA:314,1
DA:315,1
DA:316,1
BRF:0
BRH:0
LF:250
LH:212
end_of_record
SF:/Users/ekhodzitsky/Documents/personal/gigastt/crates/gigastt/src/server/mod.rs
FN:69,_RNvNtCsbd9nAVVXtRC_7gigastt6server15run_with_config
FN:48,_RNvNtCsbd9nAVVXtRC_7gigastt6server17run_with_shutdown
FN:84,_RNvNtCsbd9nAVVXtRC_7gigastt6server24run_with_config_listener
FN:40,_RNvNtCsbd9nAVVXtRC_7gigastt6server3run
FN:24,_RINvNtCsbd9nAVVXtRC_7gigastt6server9json_textNtNtCs56NpsMUp9BL_12gigastt_core8protocol13ServerMessageEB4_
FN:25,_RNCINvNtCsbd9nAVVXtRC_7gigastt6server9json_textNtNtCs56NpsMUp9BL_12gigastt_core8protocol13ServerMessageE0B6_
FN:268,_RNCNCNCNvNtCsbd9nAVVXtRC_7gigastt6server24run_with_config_listener0s0_00B9_
FN:272,_RNCNCNCNvNtCsbd9nAVVXtRC_7gigastt6server24run_with_config_listener0s1_00B9_
FN:277,_RNCNCNCNvNtCsbd9nAVVXtRC_7gigastt6server24run_with_config_listener0s2_00B9_
FN:281,_RNCNCNCNvNtCsbd9nAVVXtRC_7gigastt6server24run_with_config_listener0s3_00B9_
FN:283,_RNCNCNCNvNtCsbd9nAVVXtRC_7gigastt6server24run_with_config_listener0s4_00B9_
FN:322,_RNCNCNCNvNtCsbd9nAVVXtRC_7gigastt6server24run_with_config_listener0s6_00B9_
FN:260,_RNCNCNCNvNtCsbd9nAVVXtRC_7gigastt6server24run_with_config_listener0s_00B9_
FN:197,_RNCNCNvNtCsbd9nAVVXtRC_7gigastt6server24run_with_config_listener00B7_
FN:268,_RNCNCNvNtCsbd9nAVVXtRC_7gigastt6server24run_with_config_listener0s0_0B7_
FN:272,_RNCNCNvNtCsbd9nAVVXtRC_7gigastt6server24run_with_config_listener0s1_0B7_
FN:277,_RNCNCNvNtCsbd9nAVVXtRC_7gigastt6server24run_with_config_listener0s2_0B7_
FN:281,_RNCNCNvNtCsbd9nAVVXtRC_7gigastt6server24run_with_config_listener0s3_0B7_
FN:283,_RNCNCNvNtCsbd9nAVVXtRC_7gigastt6server24run_with_config_listener0s4_0B7_
FN:295,_RNCNCNvNtCsbd9nAVVXtRC_7gigastt6server24run_with_config_listener0s5_0B7_
FN:319,_RNCNCNvNtCsbd9nAVVXtRC_7gigastt6server24run_with_config_listener0s6_0B7_
FN:368,_RNCNCNvNtCsbd9nAVVXtRC_7gigastt6server24run_with_config_listener0s7_0B7_
FN:258,_RNCNCNvNtCsbd9nAVVXtRC_7gigastt6server24run_with_config_listener0s_0B7_
FN:73,_RNCNvNtCsbd9nAVVXtRC_7gigastt6server15run_with_config0B5_
FN:53,_RNCNvNtCsbd9nAVVXtRC_7gigastt6server17run_with_shutdown0B5_
FN:89,_RNCNvNtCsbd9nAVVXtRC_7gigastt6server24run_with_config_listener0B5_
FN:40,_RNCNvNtCsbd9nAVVXtRC_7gigastt6server3run0B5_
FN:40,_RNvNtCsk023ZLJrxN2_7gigastt6server3run
FN:445,_RNvNtNtCsk023ZLJrxN2_7gigastt6server5testss_25test_json_text_serializes
FN:459,_RNvNtNtCsk023ZLJrxN2_7gigastt6server5testss_32test_json_text_fallback_on_error
FN:475,_RNvNtNtCsk023ZLJrxN2_7gigastt6server5testss_32test_rate_limit_interval_formula
FN:504,_RNvNtNtCsk023ZLJrxN2_7gigastt6server5testss_35test_pool_checkout_timeout_clamping
FN:534,_RNvNtNtCsk023ZLJrxN2_7gigastt6server5testss_39test_run_with_shutdown_starts_and_stops
FN:515,_RNvNtNtCsk023ZLJrxN2_7gigastt6server5testss_46test_json_text_fallback_on_serialization_error
FN:552,_RNvNtNtCsk023ZLJrxN2_7gigastt6server5testss_49test_run_with_config_listener_clamps_zero_timeout
FN:480,_RNvNvNtNtCsk023ZLJrxN2_7gigastt6server5testss_32test_rate_limit_interval_formula15interval_ms_for
FN:518,_RINvXNvNtNtCsk023ZLJrxN2_7gigastt6server5testss_46test_json_text_fallback_on_serialization_errorNtB3_16FailingSerializeNtNtCsrDfZExEZmV_10serde_core3ser9Serialize9serializeQINtNtCs5Six0fKzdsK_10serde_json3ser10SerializerQINtNtCs1OjIl8oxbrv_5alloc3vec3VechEEEB9_
FN:541,_RNCNCNvNtNtCsk023ZLJrxN2_7gigastt6server5testss_39test_run_with_shutdown_starts_and_stops00B9_
FN:562,_RNCNCNvNtNtCsk023ZLJrxN2_7gigastt6server5testss_49test_run_with_config_listener_clamps_zero_timeout00B9_
FN:534,_RNCNvNtNtCsk023ZLJrxN2_7gigastt6server5testss_39test_run_with_shutdown_starts_and_stops0B7_
FN:552,_RNCNvNtNtCsk023ZLJrxN2_7gigastt6server5testss_49test_run_with_config_listener_clamps_zero_timeout0B7_
FN:24,_RINvNtCsk023ZLJrxN2_7gigastt6server9json_textNtNtCs56NpsMUp9BL_12gigastt_core8protocol13ServerMessageEB4_
FN:24,_RINvNtCsk023ZLJrxN2_7gigastt6server9json_textNtNvNtB2_5testss_46test_json_text_fallback_on_serialization_error16FailingSerializeEB4_
FN:25,_RNCINvNtCsk023ZLJrxN2_7gigastt6server9json_textNtNtCs56NpsMUp9BL_12gigastt_core8protocol13ServerMessageE0B6_
FN:25,_RNCINvNtCsk023ZLJrxN2_7gigastt6server9json_textNtNvNtB4_5testss_46test_json_text_fallback_on_serialization_error16FailingSerializeE0B6_
FN:268,_RNCNCNCNvNtCsk023ZLJrxN2_7gigastt6server24run_with_config_listener0s0_00B9_
FN:272,_RNCNCNCNvNtCsk023ZLJrxN2_7gigastt6server24run_with_config_listener0s1_00B9_
FN:277,_RNCNCNCNvNtCsk023ZLJrxN2_7gigastt6server24run_with_config_listener0s2_00B9_
FN:281,_RNCNCNCNvNtCsk023ZLJrxN2_7gigastt6server24run_with_config_listener0s3_00B9_
FN:283,_RNCNCNCNvNtCsk023ZLJrxN2_7gigastt6server24run_with_config_listener0s4_00B9_
FN:322,_RNCNCNCNvNtCsk023ZLJrxN2_7gigastt6server24run_with_config_listener0s6_00B9_
FN:260,_RNCNCNCNvNtCsk023ZLJrxN2_7gigastt6server24run_with_config_listener0s_00B9_
FN:197,_RNCNCNvNtCsk023ZLJrxN2_7gigastt6server24run_with_config_listener00B7_
FN:268,_RNCNCNvNtCsk023ZLJrxN2_7gigastt6server24run_with_config_listener0s0_0B7_
FN:272,_RNCNCNvNtCsk023ZLJrxN2_7gigastt6server24run_with_config_listener0s1_0B7_
FN:277,_RNCNCNvNtCsk023ZLJrxN2_7gigastt6server24run_with_config_listener0s2_0B7_
FN:281,_RNCNCNvNtCsk023ZLJrxN2_7gigastt6server24run_with_config_listener0s3_0B7_
FN:283,_RNCNCNvNtCsk023ZLJrxN2_7gigastt6server24run_with_config_listener0s4_0B7_
FN:295,_RNCNCNvNtCsk023ZLJrxN2_7gigastt6server24run_with_config_listener0s5_0B7_
FN:319,_RNCNCNvNtCsk023ZLJrxN2_7gigastt6server24run_with_config_listener0s6_0B7_
FN:368,_RNCNCNvNtCsk023ZLJrxN2_7gigastt6server24run_with_config_listener0s7_0B7_
FN:258,_RNCNCNvNtCsk023ZLJrxN2_7gigastt6server24run_with_config_listener0s_0B7_
FN:73,_RNCNvNtCsk023ZLJrxN2_7gigastt6server15run_with_config0B5_
FN:53,_RNCNvNtCsk023ZLJrxN2_7gigastt6server17run_with_shutdown0B5_
FN:89,_RNCNvNtCsk023ZLJrxN2_7gigastt6server24run_with_config_listener0B5_
FN:40,_RNCNvNtCsk023ZLJrxN2_7gigastt6server3run0B5_
FN:69,_RNvNtCsk023ZLJrxN2_7gigastt6server15run_with_config
FN:48,_RNvNtCsk023ZLJrxN2_7gigastt6server17run_with_shutdown
FN:84,_RNvNtCsk023ZLJrxN2_7gigastt6server24run_with_config_listener
FNDA:0,_RNvNtCsbd9nAVVXtRC_7gigastt6server15run_with_config
FNDA:0,_RNvNtCsbd9nAVVXtRC_7gigastt6server17run_with_shutdown
FNDA:0,_RNvNtCsbd9nAVVXtRC_7gigastt6server24run_with_config_listener
FNDA:0,_RNvNtCsbd9nAVVXtRC_7gigastt6server3run
FNDA:0,_RINvNtCsbd9nAVVXtRC_7gigastt6server9json_textNtNtCs56NpsMUp9BL_12gigastt_core8protocol13ServerMessageEB4_
FNDA:0,_RNCINvNtCsbd9nAVVXtRC_7gigastt6server9json_textNtNtCs56NpsMUp9BL_12gigastt_core8protocol13ServerMessageE0B6_
FNDA:0,_RNCNCNCNvNtCsbd9nAVVXtRC_7gigastt6server24run_with_config_listener0s0_00B9_
FNDA:0,_RNCNCNCNvNtCsbd9nAVVXtRC_7gigastt6server24run_with_config_listener0s1_00B9_
FNDA:0,_RNCNCNCNvNtCsbd9nAVVXtRC_7gigastt6server24run_with_config_listener0s2_00B9_
FNDA:0,_RNCNCNCNvNtCsbd9nAVVXtRC_7gigastt6server24run_with_config_listener0s3_00B9_
FNDA:0,_RNCNCNCNvNtCsbd9nAVVXtRC_7gigastt6server24run_with_config_listener0s4_00B9_
FNDA:0,_RNCNCNCNvNtCsbd9nAVVXtRC_7gigastt6server24run_with_config_listener0s6_00B9_
FNDA:0,_RNCNCNCNvNtCsbd9nAVVXtRC_7gigastt6server24run_with_config_listener0s_00B9_
FNDA:0,_RNCNCNvNtCsbd9nAVVXtRC_7gigastt6server24run_with_config_listener00B7_
FNDA:0,_RNCNCNvNtCsbd9nAVVXtRC_7gigastt6server24run_with_config_listener0s0_0B7_
FNDA:0,_RNCNCNvNtCsbd9nAVVXtRC_7gigastt6server24run_with_config_listener0s1_0B7_
FNDA:0,_RNCNCNvNtCsbd9nAVVXtRC_7gigastt6server24run_with_config_listener0s2_0B7_
FNDA:0,_RNCNCNvNtCsbd9nAVVXtRC_7gigastt6server24run_with_config_listener0s3_0B7_
FNDA:0,_RNCNCNvNtCsbd9nAVVXtRC_7gigastt6server24run_with_config_listener0s4_0B7_
FNDA:0,_RNCNCNvNtCsbd9nAVVXtRC_7gigastt6server24run_with_config_listener0s5_0B7_
FNDA:0,_RNCNCNvNtCsbd9nAVVXtRC_7gigastt6server24run_with_config_listener0s6_0B7_
FNDA:0,_RNCNCNvNtCsbd9nAVVXtRC_7gigastt6server24run_with_config_listener0s7_0B7_
FNDA:0,_RNCNCNvNtCsbd9nAVVXtRC_7gigastt6server24run_with_config_listener0s_0B7_
FNDA:0,_RNCNvNtCsbd9nAVVXtRC_7gigastt6server15run_with_config0B5_
FNDA:0,_RNCNvNtCsbd9nAVVXtRC_7gigastt6server17run_with_shutdown0B5_
FNDA:0,_RNCNvNtCsbd9nAVVXtRC_7gigastt6server24run_with_config_listener0B5_
FNDA:0,_RNCNvNtCsbd9nAVVXtRC_7gigastt6server3run0B5_
FNDA:0,_RNvNtCsk023ZLJrxN2_7gigastt6server3run
FNDA:1,_RNvNtNtCsk023ZLJrxN2_7gigastt6server5testss_25test_json_text_serializes
FNDA:1,_RNvNtNtCsk023ZLJrxN2_7gigastt6server5testss_32test_json_text_fallback_on_error
FNDA:1,_RNvNtNtCsk023ZLJrxN2_7gigastt6server5testss_32test_rate_limit_interval_formula
FNDA:1,_RNvNtNtCsk023ZLJrxN2_7gigastt6server5testss_35test_pool_checkout_timeout_clamping
FNDA:0,_RNvNtNtCsk023ZLJrxN2_7gigastt6server5testss_39test_run_with_shutdown_starts_and_stops
FNDA:1,_RNvNtNtCsk023ZLJrxN2_7gigastt6server5testss_46test_json_text_fallback_on_serialization_error
FNDA:0,_RNvNtNtCsk023ZLJrxN2_7gigastt6server5testss_49test_run_with_config_listener_clamps_zero_timeout
FNDA:8,_RNvNvNtNtCsk023ZLJrxN2_7gigastt6server5testss_32test_rate_limit_interval_formula15interval_ms_for
FNDA:1,_RINvXNvNtNtCsk023ZLJrxN2_7gigastt6server5testss_46test_json_text_fallback_on_serialization_errorNtB3_16FailingSerializeNtNtCsrDfZExEZmV_10serde_core3ser9Serialize9serializeQINtNtCs5Six0fKzdsK_10serde_json3ser10SerializerQINtNtCs1OjIl8oxbrv_5alloc3vec3VechEEEB9_
FNDA:0,_RNCNCNvNtNtCsk023ZLJrxN2_7gigastt6server5testss_39test_run_with_shutdown_starts_and_stops00B9_
FNDA:0,_RNCNCNvNtNtCsk023ZLJrxN2_7gigastt6server5testss_49test_run_with_config_listener_clamps_zero_timeout00B9_
FNDA:0,_RNCNvNtNtCsk023ZLJrxN2_7gigastt6server5testss_39test_run_with_shutdown_starts_and_stops0B7_
FNDA:0,_RNCNvNtNtCsk023ZLJrxN2_7gigastt6server5testss_49test_run_with_config_listener_clamps_zero_timeout0B7_
FNDA:2,_RINvNtCsk023ZLJrxN2_7gigastt6server9json_textNtNtCs56NpsMUp9BL_12gigastt_core8protocol13ServerMessageEB4_
FNDA:1,_RINvNtCsk023ZLJrxN2_7gigastt6server9json_textNtNvNtB2_5testss_46test_json_text_fallback_on_serialization_error16FailingSerializeEB4_
FNDA:0,_RNCINvNtCsk023ZLJrxN2_7gigastt6server9json_textNtNtCs56NpsMUp9BL_12gigastt_core8protocol13ServerMessageE0B6_
FNDA:1,_RNCINvNtCsk023ZLJrxN2_7gigastt6server9json_textNtNvNtB4_5testss_46test_json_text_fallback_on_serialization_error16FailingSerializeE0B6_
FNDA:0,_RNCNCNCNvNtCsk023ZLJrxN2_7gigastt6server24run_with_config_listener0s0_00B9_
FNDA:0,_RNCNCNCNvNtCsk023ZLJrxN2_7gigastt6server24run_with_config_listener0s1_00B9_
FNDA:0,_RNCNCNCNvNtCsk023ZLJrxN2_7gigastt6server24run_with_config_listener0s2_00B9_
FNDA:0,_RNCNCNCNvNtCsk023ZLJrxN2_7gigastt6server24run_with_config_listener0s3_00B9_
FNDA:0,_RNCNCNCNvNtCsk023ZLJrxN2_7gigastt6server24run_with_config_listener0s4_00B9_
FNDA:0,_RNCNCNCNvNtCsk023ZLJrxN2_7gigastt6server24run_with_config_listener0s6_00B9_
FNDA:0,_RNCNCNCNvNtCsk023ZLJrxN2_7gigastt6server24run_with_config_listener0s_00B9_
FNDA:0,_RNCNCNvNtCsk023ZLJrxN2_7gigastt6server24run_with_config_listener00B7_
FNDA:0,_RNCNCNvNtCsk023ZLJrxN2_7gigastt6server24run_with_config_listener0s0_0B7_
FNDA:0,_RNCNCNvNtCsk023ZLJrxN2_7gigastt6server24run_with_config_listener0s1_0B7_
FNDA:0,_RNCNCNvNtCsk023ZLJrxN2_7gigastt6server24run_with_config_listener0s2_0B7_
FNDA:0,_RNCNCNvNtCsk023ZLJrxN2_7gigastt6server24run_with_config_listener0s3_0B7_
FNDA:0,_RNCNCNvNtCsk023ZLJrxN2_7gigastt6server24run_with_config_listener0s4_0B7_
FNDA:0,_RNCNCNvNtCsk023ZLJrxN2_7gigastt6server24run_with_config_listener0s5_0B7_
FNDA:0,_RNCNCNvNtCsk023ZLJrxN2_7gigastt6server24run_with_config_listener0s6_0B7_
FNDA:0,_RNCNCNvNtCsk023ZLJrxN2_7gigastt6server24run_with_config_listener0s7_0B7_
FNDA:0,_RNCNCNvNtCsk023ZLJrxN2_7gigastt6server24run_with_config_listener0s_0B7_
FNDA:0,_RNCNvNtCsk023ZLJrxN2_7gigastt6server15run_with_config0B5_
FNDA:0,_RNCNvNtCsk023ZLJrxN2_7gigastt6server17run_with_shutdown0B5_
FNDA:0,_RNCNvNtCsk023ZLJrxN2_7gigastt6server24run_with_config_listener0B5_
FNDA:0,_RNCNvNtCsk023ZLJrxN2_7gigastt6server3run0B5_
FNDA:0,_RNvNtCsk023ZLJrxN2_7gigastt6server15run_with_config
FNDA:0,_RNvNtCsk023ZLJrxN2_7gigastt6server17run_with_shutdown
FNDA:0,_RNvNtCsk023ZLJrxN2_7gigastt6server24run_with_config_listener
FNF:40
FNH:9
DA:24,3
DA:25,3
DA:26,1
DA:27,1
DA:28,1
DA:29,3
DA:40,0
DA:41,0
DA:42,0
DA:48,0
DA:49,0
DA:50,0
DA:51,0
DA:52,0
DA:53,0
DA:54,0
DA:55,0
DA:56,0
DA:57,0
DA:58,0
DA:59,0
DA:60,0
DA:61,0
DA:62,0
DA:63,0
DA:64,0
DA:69,0
DA:70,0
DA:71,0
DA:72,0
DA:73,0
DA:74,0
DA:75,0
DA:76,0
DA:77,0
DA:78,0
DA:79,0
DA:84,0
DA:85,0
DA:86,0
DA:87,0
DA:88,0
DA:89,0
DA:90,0
DA:91,0
DA:92,0
DA:93,0
DA:94,0
DA:95,0
DA:96,0
DA:103,0
DA:104,0
DA:105,0
DA:106,0
DA:107,0
DA:108,0
DA:109,0
DA:110,0
DA:111,0
DA:112,0
DA:113,0
DA:114,0
DA:115,0
DA:116,0
DA:117,0
DA:118,0
DA:119,0
DA:120,0
DA:121,0
DA:122,0
DA:123,0
DA:124,0
DA:125,0
DA:126,0
DA:127,0
DA:128,0
DA:129,0
DA:130,0
DA:131,0
DA:132,0
DA:133,0
DA:134,0
DA:135,0
DA:136,0
DA:137,0
DA:138,0
DA:139,0
DA:140,0
DA:141,0
DA:142,0
DA:143,0
DA:144,0
DA:145,0
DA:147,0
DA:154,0
DA:155,0
DA:157,0
DA:163,0
DA:169,0
DA:170,0
DA:172,0
DA:173,0
DA:174,0
DA:175,0
DA:176,0
DA:177,0
DA:178,0
DA:180,0
DA:181,0
DA:182,0
DA:183,0
DA:184,0
DA:185,0
DA:186,0
DA:188,0
DA:193,0
DA:194,0
DA:195,0
DA:196,0
DA:197,0
DA:199,0
DA:200,0
DA:201,0
DA:202,0
DA:203,0
DA:207,0
DA:209,0
DA:210,0
DA:211,0
DA:212,0
DA:213,0
DA:215,0
DA:216,0
DA:217,0
DA:218,0
DA:220,0
DA:221,0
DA:222,0
DA:224,0
DA:225,0
DA:226,0
DA:227,0
DA:228,0
DA:230,0
DA:231,0
DA:232,0
DA:233,0
DA:234,0
DA:236,0
DA:238,0
DA:241,0
DA:242,0
DA:244,0
DA:245,0
DA:251,0
DA:254,0
DA:256,0
DA:257,0
DA:258,0
DA:259,0
DA:260,0
DA:261,0
DA:266,0
DA:267,0
DA:268,0
DA:269,0
DA:270,0
DA:271,0
DA:272,0
DA:274,0
DA:275,0
DA:276,0
DA:277,0
DA:280,0
DA:281,0
DA:282,0
DA:283,0
DA:284,0
DA:285,0
DA:288,0
DA:290,0
DA:291,0
DA:293,0
DA:294,0
DA:295,0
DA:296,0
DA:297,0
DA:298,0
DA:300,0
DA:302,0
DA:303,0
DA:304,0
DA:305,0
DA:308,0
DA:310,0
DA:316,0
DA:317,0
DA:318,0
DA:319,0
DA:320,0
DA:321,0
DA:322,0
DA:323,0
DA:324,0
DA:325,0
DA:326,0
DA:328,0
DA:334,0
DA:336,0
DA:338,0
DA:339,0
DA:340,0
DA:341,0
DA:342,0
DA:343,0
DA:344,0
DA:345,0
DA:347,0
DA:348,0
DA:349,0
DA:352,0
DA:353,0
DA:357,0
DA:358,0
DA:362,0
DA:364,0
DA:366,0
DA:367,0
DA:368,0
DA:369,0
DA:370,0
DA:371,0
DA:377,0
DA:378,0
DA:379,0
DA:380,0
DA:381,0
DA:382,0
DA:385,0
DA:386,0
DA:387,0
DA:388,0
DA:398,0
DA:402,0
DA:407,0
DA:408,0
DA:411,0
DA:412,0
DA:413,0
DA:414,0
DA:415,0
DA:416,0
DA:422,0
DA:423,0
DA:424,0
DA:425,0
DA:427,0
DA:429,0
DA:430,0
DA:432,0
DA:437,0
DA:438,0
DA:445,1
DA:446,1
DA:447,1
DA:448,1
DA:449,1
DA:450,1
DA:451,1
DA:452,1
DA:453,1
DA:454,1
DA:455,1
DA:456,1
DA:459,1
DA:465,1
DA:466,1
DA:467,1
DA:468,1
DA:469,1
DA:470,1
DA:471,1
DA:472,1
DA:475,1
DA:480,8
DA:481,8
DA:482,8
DA:483,8
DA:484,1
DA:485,1
DA:486,1
DA:487,1
DA:488,1
DA:489,1
DA:490,1
DA:491,1
DA:492,1
DA:493,1
DA:494,8
DA:495,8
DA:496,8
DA:501,1
DA:504,1
DA:505,1
DA:506,1
DA:508,1
DA:509,1
DA:510,1
DA:511,1
DA:512,1
DA:515,1
DA:518,1
DA:519,1
DA:520,1
DA:522,1
DA:523,1
DA:525,1
DA:526,1
DA:530,1
DA:534,0
DA:535,0
DA:536,0
DA:539,0
DA:540,0
DA:541,0
DA:542,0
DA:543,0
DA:544,0
DA:545,0
DA:546,0
DA:547,0
DA:548,0
DA:552,0
DA:553,0
DA:554,0
DA:557,0
DA:558,0
DA:559,0
DA:560,0
DA:561,0
DA:562,0
DA:563,0
DA:564,0
DA:565,0
DA:566,0
DA:567,0
DA:568,0
DA:569,0
BRF:0
BRH:0
LF:373
LH:64
end_of_record
SF:/Users/ekhodzitsky/Documents/personal/gigastt/crates/gigastt/src/server/rate_limit.rs
FN:269,_RNCNvMs1_NtNtCsbd9nAVVXtRC_7gigastt6server10rate_limitNtB7_11RateLimiter11evict_stale0Bb_
FN:249,_RNCNvMs1_NtNtCsbd9nAVVXtRC_7gigastt6server10rate_limitNtB7_11RateLimiter12evict_random0Bb_
FN:313,_RNCNvNtNtCsbd9nAVVXtRC_7gigastt6server10rate_limit17extract_client_ip0B7_
FN:373,_RNCNvNtNtCsbd9nAVVXtRC_7gigastt6server10rate_limit21rate_limit_middleware0B7_
FN:292,_RNCNvNtNtCsbd9nAVVXtRC_7gigastt6server10rate_limit7unix_ms0B7_
FN:50,_RNvMNtNtCsbd9nAVVXtRC_7gigastt6server10rate_limitNtB2_3Rpm3get
FN:37,_RNvMNtNtCsbd9nAVVXtRC_7gigastt6server10rate_limitNtB2_3Rpm3new
FN:59,_RNvMNtNtCsbd9nAVVXtRC_7gigastt6server10rate_limitNtB2_3Rpm8from_raw
FN:134,_RNvMs0_NtNtCsbd9nAVVXtRC_7gigastt6server10rate_limitNtB5_11TokenBucket11try_consume
FN:118,_RNvMs0_NtNtCsbd9nAVVXtRC_7gigastt6server10rate_limitNtB5_11TokenBucket3new
FN:266,_RNvMs1_NtNtCsbd9nAVVXtRC_7gigastt6server10rate_limitNtB5_11RateLimiter11evict_stale
FN:209,_RNvMs1_NtNtCsbd9nAVVXtRC_7gigastt6server10rate_limitNtB5_11RateLimiter11interval_ms
FN:244,_RNvMs1_NtNtCsbd9nAVVXtRC_7gigastt6server10rate_limitNtB5_11RateLimiter12evict_random
FN:182,_RNvMs1_NtNtCsbd9nAVVXtRC_7gigastt6server10rate_limitNtB5_11RateLimiter3new
FN:222,_RNvMs1_NtNtCsbd9nAVVXtRC_7gigastt6server10rate_limitNtB5_11RateLimiter5check
FN:83,_RNvMs_NtNtCsbd9nAVVXtRC_7gigastt6server10rate_limitNtB4_5Burst3get
FN:73,_RNvMs_NtNtCsbd9nAVVXtRC_7gigastt6server10rate_limitNtB4_5Burst3new
FN:92,_RNvMs_NtNtCsbd9nAVVXtRC_7gigastt6server10rate_limitNtB4_5Burst8from_raw
FN:348,_RNvNtNtCsbd9nAVVXtRC_7gigastt6server10rate_limit10is_rfc1918
FN:309,_RNvNtNtCsbd9nAVVXtRC_7gigastt6server10rate_limit17extract_client_ip
FN:367,_RNvNtNtCsbd9nAVVXtRC_7gigastt6server10rate_limit21rate_limit_middleware
FN:289,_RNvNtNtCsbd9nAVVXtRC_7gigastt6server10rate_limit7unix_ms
FN:627,_RNvNtNtNtCsk023ZLJrxN2_7gigastt6server10rate_limit5testss_25test_rpm_new_rejects_zero
FN:637,_RNvNtNtNtCsk023ZLJrxN2_7gigastt6server10rate_limit5testss_26test_rpm_new_accepts_valid
FN:643,_RNvNtNtNtCsk023ZLJrxN2_7gigastt6server10rate_limit5testss_27test_burst_new_rejects_zero
FN:582,_RNvNtNtNtCsk023ZLJrxN2_7gigastt6server10rate_limit5testss_27test_eviction_removes_stale
FN:648,_RNvNtNtNtCsk023ZLJrxN2_7gigastt6server10rate_limit5testss_28test_burst_new_accepts_valid
FN:632,_RNvNtNtNtCsk023ZLJrxN2_7gigastt6server10rate_limit5testss_29test_rpm_new_rejects_too_high
FN:446,_RNvNtNtNtCsk023ZLJrxN2_7gigastt6server10rate_limit5testss_34test_rate_limiter_per_ip_isolation
FN:427,_RNvNtNtNtCsk023ZLJrxN2_7gigastt6server10rate_limit5testss_35test_token_bucket_refills_over_time
FN:604,_RNvNtNtNtCsk023ZLJrxN2_7gigastt6server10rate_limit5testss_40test_rate_limiter_random_eviction_at_cap
FN:411,_RNvNtNtNtCsk023ZLJrxN2_7gigastt6server10rate_limit5testss_40test_token_bucket_allows_within_capacity
FN:531,_RNvNtNtNtCsk023ZLJrxN2_7gigastt6server10rate_limit5testss_42test_extract_ip_falls_back_to_connect_info
FN:462,_RNvNtNtNtCsk023ZLJrxN2_7gigastt6server10rate_limit5testss_46test_rate_limiter_refill_formula_matches_v1_06
FN:512,_RNvNtNtNtCsk023ZLJrxN2_7gigastt6server10rate_limit5testss_50test_extract_ip_ignores_forwarded_when_not_trusted
FN:491,_RNvNtNtNtCsk023ZLJrxN2_7gigastt6server10rate_limit5testss_50test_extract_ip_prefers_forwarded_for_when_trusted
FN:546,_RNvNtNtNtCsk023ZLJrxN2_7gigastt6server10rate_limit5testss_55test_extract_ip_uses_real_ip_when_forwarded_for_garbage
FN:565,_RNvNtNtNtCsk023ZLJrxN2_7gigastt6server10rate_limit5testss_56test_extract_ip_skips_headers_when_direct_peer_is_public
FN:269,_RNCNvMs1_NtNtCsk023ZLJrxN2_7gigastt6server10rate_limitNtB7_11RateLimiter11evict_stale0Bb_
FN:249,_RNCNvMs1_NtNtCsk023ZLJrxN2_7gigastt6server10rate_limitNtB7_11RateLimiter12evict_random0Bb_
FN:313,_RNCNvNtNtCsk023ZLJrxN2_7gigastt6server10rate_limit17extract_client_ip0B7_
FN:373,_RNCNvNtNtCsk023ZLJrxN2_7gigastt6server10rate_limit21rate_limit_middleware0B7_
FN:292,_RNCNvNtNtCsk023ZLJrxN2_7gigastt6server10rate_limit7unix_ms0B7_
FN:50,_RNvMNtNtCsk023ZLJrxN2_7gigastt6server10rate_limitNtB2_3Rpm3get
FN:37,_RNvMNtNtCsk023ZLJrxN2_7gigastt6server10rate_limitNtB2_3Rpm3new
FN:59,_RNvMNtNtCsk023ZLJrxN2_7gigastt6server10rate_limitNtB2_3Rpm8from_raw
FN:134,_RNvMs0_NtNtCsk023ZLJrxN2_7gigastt6server10rate_limitNtB5_11TokenBucket11try_consume
FN:118,_RNvMs0_NtNtCsk023ZLJrxN2_7gigastt6server10rate_limitNtB5_11TokenBucket3new
FN:266,_RNvMs1_NtNtCsk023ZLJrxN2_7gigastt6server10rate_limitNtB5_11RateLimiter11evict_stale
FN:209,_RNvMs1_NtNtCsk023ZLJrxN2_7gigastt6server10rate_limitNtB5_11RateLimiter11interval_ms
FN:244,_RNvMs1_NtNtCsk023ZLJrxN2_7gigastt6server10rate_limitNtB5_11RateLimiter12evict_random
FN:279,_RNvMs1_NtNtCsk023ZLJrxN2_7gigastt6server10rate_limitNtB5_11RateLimiter3len
FN:182,_RNvMs1_NtNtCsk023ZLJrxN2_7gigastt6server10rate_limitNtB5_11RateLimiter3new
FN:222,_RNvMs1_NtNtCsk023ZLJrxN2_7gigastt6server10rate_limitNtB5_11RateLimiter5check
FN:83,_RNvMs_NtNtCsk023ZLJrxN2_7gigastt6server10rate_limitNtB4_5Burst3get
FN:73,_RNvMs_NtNtCsk023ZLJrxN2_7gigastt6server10rate_limitNtB4_5Burst3new
FN:92,_RNvMs_NtNtCsk023ZLJrxN2_7gigastt6server10rate_limitNtB4_5Burst8from_raw
FN:348,_RNvNtNtCsk023ZLJrxN2_7gigastt6server10rate_limit10is_rfc1918
FN:309,_RNvNtNtCsk023ZLJrxN2_7gigastt6server10rate_limit17extract_client_ip
FN:367,_RNvNtNtCsk023ZLJrxN2_7gigastt6server10rate_limit21rate_limit_middleware
FN:289,_RNvNtNtCsk023ZLJrxN2_7gigastt6server10rate_limit7unix_ms
FNDA:0,_RNCNvMs1_NtNtCsbd9nAVVXtRC_7gigastt6server10rate_limitNtB7_11RateLimiter11evict_stale0Bb_
FNDA:0,_RNCNvMs1_NtNtCsbd9nAVVXtRC_7gigastt6server10rate_limitNtB7_11RateLimiter12evict_random0Bb_
FNDA:0,_RNCNvNtNtCsbd9nAVVXtRC_7gigastt6server10rate_limit17extract_client_ip0B7_
FNDA:0,_RNCNvNtNtCsbd9nAVVXtRC_7gigastt6server10rate_limit21rate_limit_middleware0B7_
FNDA:0,_RNCNvNtNtCsbd9nAVVXtRC_7gigastt6server10rate_limit7unix_ms0B7_
FNDA:0,_RNvMNtNtCsbd9nAVVXtRC_7gigastt6server10rate_limitNtB2_3Rpm3get
FNDA:0,_RNvMNtNtCsbd9nAVVXtRC_7gigastt6server10rate_limitNtB2_3Rpm3new
FNDA:0,_RNvMNtNtCsbd9nAVVXtRC_7gigastt6server10rate_limitNtB2_3Rpm8from_raw
FNDA:0,_RNvMs0_NtNtCsbd9nAVVXtRC_7gigastt6server10rate_limitNtB5_11TokenBucket11try_consume
FNDA:0,_RNvMs0_NtNtCsbd9nAVVXtRC_7gigastt6server10rate_limitNtB5_11TokenBucket3new
FNDA:0,_RNvMs1_NtNtCsbd9nAVVXtRC_7gigastt6server10rate_limitNtB5_11RateLimiter11evict_stale
FNDA:0,_RNvMs1_NtNtCsbd9nAVVXtRC_7gigastt6server10rate_limitNtB5_11RateLimiter11interval_ms
FNDA:0,_RNvMs1_NtNtCsbd9nAVVXtRC_7gigastt6server10rate_limitNtB5_11RateLimiter12evict_random
FNDA:0,_RNvMs1_NtNtCsbd9nAVVXtRC_7gigastt6server10rate_limitNtB5_11RateLimiter3new
FNDA:0,_RNvMs1_NtNtCsbd9nAVVXtRC_7gigastt6server10rate_limitNtB5_11RateLimiter5check
FNDA:0,_RNvMs_NtNtCsbd9nAVVXtRC_7gigastt6server10rate_limitNtB4_5Burst3get
FNDA:0,_RNvMs_NtNtCsbd9nAVVXtRC_7gigastt6server10rate_limitNtB4_5Burst3new
FNDA:0,_RNvMs_NtNtCsbd9nAVVXtRC_7gigastt6server10rate_limitNtB4_5Burst8from_raw
FNDA:0,_RNvNtNtCsbd9nAVVXtRC_7gigastt6server10rate_limit10is_rfc1918
FNDA:0,_RNvNtNtCsbd9nAVVXtRC_7gigastt6server10rate_limit17extract_client_ip
FNDA:0,_RNvNtNtCsbd9nAVVXtRC_7gigastt6server10rate_limit21rate_limit_middleware
FNDA:0,_RNvNtNtCsbd9nAVVXtRC_7gigastt6server10rate_limit7unix_ms
FNDA:1,_RNvNtNtNtCsk023ZLJrxN2_7gigastt6server10rate_limit5testss_25test_rpm_new_rejects_zero
FNDA:1,_RNvNtNtNtCsk023ZLJrxN2_7gigastt6server10rate_limit5testss_26test_rpm_new_accepts_valid
FNDA:1,_RNvNtNtNtCsk023ZLJrxN2_7gigastt6server10rate_limit5testss_27test_burst_new_rejects_zero
FNDA:1,_RNvNtNtNtCsk023ZLJrxN2_7gigastt6server10rate_limit5testss_27test_eviction_removes_stale
FNDA:1,_RNvNtNtNtCsk023ZLJrxN2_7gigastt6server10rate_limit5testss_28test_burst_new_accepts_valid
FNDA:1,_RNvNtNtNtCsk023ZLJrxN2_7gigastt6server10rate_limit5testss_29test_rpm_new_rejects_too_high
FNDA:1,_RNvNtNtNtCsk023ZLJrxN2_7gigastt6server10rate_limit5testss_34test_rate_limiter_per_ip_isolation
FNDA:1,_RNvNtNtNtCsk023ZLJrxN2_7gigastt6server10rate_limit5testss_35test_token_bucket_refills_over_time
FNDA:1,_RNvNtNtNtCsk023ZLJrxN2_7gigastt6server10rate_limit5testss_40test_rate_limiter_random_eviction_at_cap
FNDA:1,_RNvNtNtNtCsk023ZLJrxN2_7gigastt6server10rate_limit5testss_40test_token_bucket_allows_within_capacity
FNDA:1,_RNvNtNtNtCsk023ZLJrxN2_7gigastt6server10rate_limit5testss_42test_extract_ip_falls_back_to_connect_info
FNDA:1,_RNvNtNtNtCsk023ZLJrxN2_7gigastt6server10rate_limit5testss_46test_rate_limiter_refill_formula_matches_v1_06
FNDA:1,_RNvNtNtNtCsk023ZLJrxN2_7gigastt6server10rate_limit5testss_50test_extract_ip_ignores_forwarded_when_not_trusted
FNDA:1,_RNvNtNtNtCsk023ZLJrxN2_7gigastt6server10rate_limit5testss_50test_extract_ip_prefers_forwarded_for_when_trusted
FNDA:1,_RNvNtNtNtCsk023ZLJrxN2_7gigastt6server10rate_limit5testss_55test_extract_ip_uses_real_ip_when_forwarded_for_garbage
FNDA:1,_RNvNtNtNtCsk023ZLJrxN2_7gigastt6server10rate_limit5testss_56test_extract_ip_skips_headers_when_direct_peer_is_public
FNDA:2,_RNCNvMs1_NtNtCsk023ZLJrxN2_7gigastt6server10rate_limitNtB7_11RateLimiter11evict_stale0Bb_
FNDA:200,_RNCNvMs1_NtNtCsk023ZLJrxN2_7gigastt6server10rate_limitNtB7_11RateLimiter12evict_random0Bb_
FNDA:5,_RNCNvNtNtCsk023ZLJrxN2_7gigastt6server10rate_limit17extract_client_ip0B7_
FNDA:0,_RNCNvNtNtCsk023ZLJrxN2_7gigastt6server10rate_limit21rate_limit_middleware0B7_
FNDA:100040,_RNCNvNtNtCsk023ZLJrxN2_7gigastt6server10rate_limit7unix_ms0B7_
FNDA:1,_RNvMNtNtCsk023ZLJrxN2_7gigastt6server10rate_limitNtB2_3Rpm3get
FNDA:3,_RNvMNtNtCsk023ZLJrxN2_7gigastt6server10rate_limitNtB2_3Rpm3new
FNDA:9,_RNvMNtNtCsk023ZLJrxN2_7gigastt6server10rate_limitNtB2_3Rpm8from_raw
FNDA:100036,_RNvMs0_NtNtCsk023ZLJrxN2_7gigastt6server10rate_limitNtB5_11TokenBucket11try_consume
FNDA:100014,_RNvMs0_NtNtCsk023ZLJrxN2_7gigastt6server10rate_limitNtB5_11TokenBucket3new
FNDA:1,_RNvMs1_NtNtCsk023ZLJrxN2_7gigastt6server10rate_limitNtB5_11RateLimiter11evict_stale
FNDA:0,_RNvMs1_NtNtCsk023ZLJrxN2_7gigastt6server10rate_limitNtB5_11RateLimiter11interval_ms
FNDA:2,_RNvMs1_NtNtCsk023ZLJrxN2_7gigastt6server10rate_limitNtB5_11RateLimiter12evict_random
FNDA:2,_RNvMs1_NtNtCsk023ZLJrxN2_7gigastt6server10rate_limitNtB5_11RateLimiter3len
FNDA:9,_RNvMs1_NtNtCsk023ZLJrxN2_7gigastt6server10rate_limitNtB5_11RateLimiter3new
FNDA:100020,_RNvMs1_NtNtCsk023ZLJrxN2_7gigastt6server10rate_limitNtB5_11RateLimiter5check
FNDA:1,_RNvMs_NtNtCsk023ZLJrxN2_7gigastt6server10rate_limitNtB4_5Burst3get
FNDA:2,_RNvMs_NtNtCsk023ZLJrxN2_7gigastt6server10rate_limitNtB4_5Burst3new
FNDA:9,_RNvMs_NtNtCsk023ZLJrxN2_7gigastt6server10rate_limitNtB4_5Burst8from_raw
FNDA:1,_RNvNtNtCsk023ZLJrxN2_7gigastt6server10rate_limit10is_rfc1918
FNDA:5,_RNvNtNtCsk023ZLJrxN2_7gigastt6server10rate_limit17extract_client_ip
FNDA:0,_RNvNtNtCsk023ZLJrxN2_7gigastt6server10rate_limit21rate_limit_middleware
FNDA:100040,_RNvNtNtCsk023ZLJrxN2_7gigastt6server10rate_limit7unix_ms
FNF:39
FNH:36
DA:37,3
DA:38,3
DA:39,1
DA:40,2
DA:41,2
DA:42,1
DA:43,1
DA:44,1
DA:45,3
DA:50,1
DA:51,1
DA:52,1
DA:59,9
DA:60,9
DA:61,9
DA:62,9
DA:73,2
DA:74,2
DA:75,1
DA:76,1
DA:77,1
DA:78,2
DA:83,1
DA:84,1
DA:85,1
DA:92,9
DA:93,9
DA:94,9
DA:95,9
DA:118,100014
DA:119,100014
DA:120,100014
DA:121,100014
DA:122,100014
DA:123,100014
DA:124,100014
DA:125,100014
DA:126,100014
DA:134,100036
DA:135,100036
DA:136,100036
DA:137,100036
DA:138,100036
DA:139,100036
DA:140,15
DA:141,15
DA:142,100021
DA:143,100036
DA:144,100036
DA:145,100026
DA:146,100026
DA:148,10
DA:150,100036
DA:182,9
DA:183,9
DA:184,0
DA:189,9
DA:190,9
DA:191,9
DA:192,9
DA:193,9
DA:194,9
DA:195,9
DA:196,9
DA:197,9
DA:198,9
DA:199,9
DA:209,0
DA:210,0
DA:211,0
DA:222,100020
DA:223,100020
DA:224,100020
DA:227,100020
DA:228,8
DA:229,100012
DA:232,100012
DA:233,2
DA:234,100010
DA:236,100012
DA:237,100012
DA:238,100012
DA:239,100012
DA:240,100020
DA:244,2
DA:245,2
DA:246,2
DA:247,2
DA:248,2
DA:249,200
DA:250,2
DA:251,2
DA:252,2
DA:253,2
DA:254,2
DA:255,2
DA:266,1
DA:267,1
DA:268,1
DA:269,2
DA:270,1
DA:279,2
DA:280,2
DA:281,2
DA:289,100040
DA:290,100040
DA:291,100040
DA:292,100040
DA:293,100040
DA:309,5
DA:310,5
DA:311,5
DA:312,5
DA:313,5
DA:315,5
DA:316,1
DA:317,4
DA:321,4
DA:322,4
DA:323,1
DA:325,1
DA:326,3
DA:328,3
DA:329,3
DA:330,2
DA:332,2
DA:333,2
DA:334,1
DA:335,1
DA:336,1
DA:337,2
DA:338,1
DA:339,1
DA:341,1
DA:342,1
DA:343,1
DA:344,5
DA:348,1
DA:349,1
DA:350,1
DA:351,1
DA:352,1
DA:354,0
DA:356,1
DA:367,0
DA:368,0
DA:369,0
DA:370,0
DA:371,0
DA:372,0
DA:373,0
DA:374,0
DA:375,0
DA:376,0
DA:378,0
DA:379,0
DA:381,0
DA:382,0
DA:383,0
DA:384,0
DA:385,0
DA:386,0
DA:387,0
DA:388,0
DA:389,0
DA:390,0
DA:391,0
DA:392,0
DA:393,0
DA:394,0
DA:395,0
DA:396,0
DA:397,0
DA:398,0
DA:399,0
DA:401,0
DA:411,1
DA:414,1
DA:415,1
DA:416,5
DA:417,5
DA:420,1
DA:421,1
DA:424,1
DA:427,1
DA:430,1
DA:431,1
DA:432,1
DA:433,1
DA:434,1
DA:435,1
DA:438,1
DA:439,1
DA:440,1
DA:443,1
DA:446,1
DA:449,1
DA:450,1
DA:451,1
DA:452,1
DA:453,1
DA:454,1
DA:457,1
DA:458,1
DA:459,1
DA:462,1
DA:467,6
DA:468,6
DA:469,6
DA:470,6
DA:471,6
DA:472,6
DA:478,6
DA:479,6
DA:480,6
DA:483,6
DA:484,6
DA:488,1
DA:491,1
DA:493,1
DA:494,1
DA:495,1
DA:496,1
DA:497,1
DA:499,1
DA:501,1
DA:502,1
DA:503,1
DA:504,1
DA:505,1
DA:506,1
DA:507,1
DA:508,1
DA:509,1
DA:512,1
DA:514,1
DA:515,1
DA:516,1
DA:517,1
DA:518,1
DA:520,1
DA:522,1
DA:523,1
DA:524,1
DA:525,1
DA:526,1
DA:527,1
DA:528,1
DA:531,1
DA:533,1
DA:534,1
DA:535,1
DA:536,1
DA:537,1
DA:538,1
DA:539,1
DA:540,1
DA:541,1
DA:542,1
DA:543,1
DA:546,1
DA:548,1
DA:549,1
DA:550,1
DA:551,1
DA:552,1
DA:553,1
DA:554,1
DA:555,1
DA:556,1
DA:557,1
DA:558,1
DA:559,1
DA:560,1
DA:561,1
DA:562,1
DA:565,1
DA:567,1
DA:568,1
DA:569,1
DA:570,1
DA:571,1
DA:572,1
DA:573,1
DA:574,1
DA:575,1
DA:576,1
DA:577,1
DA:578,1
DA:579,1
DA:582,1
DA:585,1
DA:586,1
DA:587,1
DA:588,1
DA:589,1
DA:591,1
DA:592,1
DA:593,1
DA:594,1
DA:595,1
DA:596,1
DA:597,1
DA:598,1
DA:601,1
DA:604,1
DA:606,1
DA:607,1
DA:608,100001
DA:609,100001
DA:610,100001
DA:611,100001
DA:615,1
DA:616,1
DA:618,1
DA:619,1
DA:621,0
DA:624,1
DA:627,1
DA:628,1
DA:629,1
DA:632,1
DA:633,1
DA:634,1
DA:637,1
DA:638,1
DA:639,1
DA:640,1
DA:643,1
DA:644,1
DA:645,1
DA:648,1
DA:649,1
DA:650,1
DA:651,1
BRF:0
BRH:0
LF:340
LH:301
end_of_record
SF:/Users/ekhodzitsky/Documents/personal/gigastt/crates/gigastt/src/server/ws.rs
FN:27,_RNvNtNtCsbd9nAVVXtRC_7gigastt6server2ws10ws_handler
FN:436,_RNvNtNtCsbd9nAVVXtRC_7gigastt6server2ws15flush_and_final
FN:453,_RNvNtNtCsbd9nAVVXtRC_7gigastt6server2ws15handle_ws_inner
FN:185,_RNvNtNtCsbd9nAVVXtRC_7gigastt6server2ws19handle_binary_frame
FN:411,_RNvNtNtCsbd9nAVVXtRC_7gigastt6server2ws19handle_stop_message
FN:169,_RNvNtNtCsbd9nAVVXtRC_7gigastt6server2ws19send_server_message
FN:339,_RNvNtNtCsbd9nAVVXtRC_7gigastt6server2ws24handle_configure_message
FN:78,_RNvNtNtCsbd9nAVVXtRC_7gigastt6server2ws9handle_ws
FN:84,_RNvXNCNvNtNtCsbd9nAVVXtRC_7gigastt6server2ws9handle_ws0NtB2_14WsMetricsGuardNtNtNtCsl8K0bEFm1U0_4core3ops4drop4Drop4drop
FN:67,_RNCNCNCNvNtNtCsbd9nAVVXtRC_7gigastt6server2ws10ws_handler0s_00Bb_
FN:269,_RNCNCNCNvNtNtCsbd9nAVVXtRC_7gigastt6server2ws19handle_binary_frame0s1_00Bb_
FN:56,_RNCNCNvNtNtCsbd9nAVVXtRC_7gigastt6server2ws10ws_handler00B9_
FN:64,_RNCNCNvNtNtCsbd9nAVVXtRC_7gigastt6server2ws10ws_handler0s_0B9_
FN:443,_RNCNCNvNtNtCsbd9nAVVXtRC_7gigastt6server2ws15flush_and_final00B9_
FN:241,_RNCNCNvNtNtCsbd9nAVVXtRC_7gigastt6server2ws19handle_binary_frame00B9_
FN:255,_RNCNCNvNtNtCsbd9nAVVXtRC_7gigastt6server2ws19handle_binary_frame0s0_0B9_
FN:262,_RNCNCNvNtNtCsbd9nAVVXtRC_7gigastt6server2ws19handle_binary_frame0s1_0B9_
FN:254,_RNCNCNvNtNtCsbd9nAVVXtRC_7gigastt6server2ws19handle_binary_frame0s_0B9_
FN:32,_RNCNvNtNtCsbd9nAVVXtRC_7gigastt6server2ws10ws_handler0B7_
FN:440,_RNCNvNtNtCsbd9nAVVXtRC_7gigastt6server2ws15flush_and_final0B7_
FN:460,_RNCNvNtNtCsbd9nAVVXtRC_7gigastt6server2ws15handle_ws_inner0B7_
FN:197,_RNCNvNtNtCsbd9nAVVXtRC_7gigastt6server2ws19handle_binary_frame0B7_
FN:416,_RNCNvNtNtCsbd9nAVVXtRC_7gigastt6server2ws19handle_stop_message0B7_
FN:169,_RNCNvNtNtCsbd9nAVVXtRC_7gigastt6server2ws19send_server_message0B7_
FN:349,_RNCNvNtNtCsbd9nAVVXtRC_7gigastt6server2ws24handle_configure_message0B7_
FN:78,_RNCNvNtNtCsbd9nAVVXtRC_7gigastt6server2ws9handle_ws0B7_
FN:687,_RNvNtNtNtCsk023ZLJrxN2_7gigastt6server2ws5testss_50test_catch_unwind_preserves_ownership_across_panic
FN:698,_RNCNvNtNtNtCsk023ZLJrxN2_7gigastt6server2ws5testss_50test_catch_unwind_preserves_ownership_across_panic0B9_
FN:67,_RNCNCNCNvNtNtCsk023ZLJrxN2_7gigastt6server2ws10ws_handler0s_00Bb_
FN:269,_RNCNCNCNvNtNtCsk023ZLJrxN2_7gigastt6server2ws19handle_binary_frame0s1_00Bb_
FN:56,_RNCNCNvNtNtCsk023ZLJrxN2_7gigastt6server2ws10ws_handler00B9_
FN:64,_RNCNCNvNtNtCsk023ZLJrxN2_7gigastt6server2ws10ws_handler0s_0B9_
FN:443,_RNCNCNvNtNtCsk023ZLJrxN2_7gigastt6server2ws15flush_and_final00B9_
FN:241,_RNCNCNvNtNtCsk023ZLJrxN2_7gigastt6server2ws19handle_binary_frame00B9_
FN:255,_RNCNCNvNtNtCsk023ZLJrxN2_7gigastt6server2ws19handle_binary_frame0s0_0B9_
FN:262,_RNCNCNvNtNtCsk023ZLJrxN2_7gigastt6server2ws19handle_binary_frame0s1_0B9_
FN:254,_RNCNCNvNtNtCsk023ZLJrxN2_7gigastt6server2ws19handle_binary_frame0s_0B9_
FN:32,_RNCNvNtNtCsk023ZLJrxN2_7gigastt6server2ws10ws_handler0B7_
FN:440,_RNCNvNtNtCsk023ZLJrxN2_7gigastt6server2ws15flush_and_final0B7_
FN:460,_RNCNvNtNtCsk023ZLJrxN2_7gigastt6server2ws15handle_ws_inner0B7_
FN:197,_RNCNvNtNtCsk023ZLJrxN2_7gigastt6server2ws19handle_binary_frame0B7_
FN:416,_RNCNvNtNtCsk023ZLJrxN2_7gigastt6server2ws19handle_stop_message0B7_
FN:169,_RNCNvNtNtCsk023ZLJrxN2_7gigastt6server2ws19send_server_message0B7_
FN:349,_RNCNvNtNtCsk023ZLJrxN2_7gigastt6server2ws24handle_configure_message0B7_
FN:78,_RNCNvNtNtCsk023ZLJrxN2_7gigastt6server2ws9handle_ws0B7_
FN:84,_RNvXNCNvNtNtCsk023ZLJrxN2_7gigastt6server2ws9handle_ws0NtB2_14WsMetricsGuardNtNtNtCsl8K0bEFm1U0_4core3ops4drop4Drop4drop
FN:27,_RNvNtNtCsk023ZLJrxN2_7gigastt6server2ws10ws_handler
FN:436,_RNvNtNtCsk023ZLJrxN2_7gigastt6server2ws15flush_and_final
FN:453,_RNvNtNtCsk023ZLJrxN2_7gigastt6server2ws15handle_ws_inner
FN:185,_RNvNtNtCsk023ZLJrxN2_7gigastt6server2ws19handle_binary_frame
FN:411,_RNvNtNtCsk023ZLJrxN2_7gigastt6server2ws19handle_stop_message
FN:169,_RNvNtNtCsk023ZLJrxN2_7gigastt6server2ws19send_server_message
FN:339,_RNvNtNtCsk023ZLJrxN2_7gigastt6server2ws24handle_configure_message
FN:78,_RNvNtNtCsk023ZLJrxN2_7gigastt6server2ws9handle_ws
FNDA:0,_RNvNtNtCsbd9nAVVXtRC_7gigastt6server2ws10ws_handler
FNDA:0,_RNvNtNtCsbd9nAVVXtRC_7gigastt6server2ws15flush_and_final
FNDA:0,_RNvNtNtCsbd9nAVVXtRC_7gigastt6server2ws15handle_ws_inner
FNDA:0,_RNvNtNtCsbd9nAVVXtRC_7gigastt6server2ws19handle_binary_frame
FNDA:0,_RNvNtNtCsbd9nAVVXtRC_7gigastt6server2ws19handle_stop_message
FNDA:0,_RNvNtNtCsbd9nAVVXtRC_7gigastt6server2ws19send_server_message
FNDA:0,_RNvNtNtCsbd9nAVVXtRC_7gigastt6server2ws24handle_configure_message
FNDA:0,_RNvNtNtCsbd9nAVVXtRC_7gigastt6server2ws9handle_ws
FNDA:0,_RNvXNCNvNtNtCsbd9nAVVXtRC_7gigastt6server2ws9handle_ws0NtB2_14WsMetricsGuardNtNtNtCsl8K0bEFm1U0_4core3ops4drop4Drop4drop
FNDA:0,_RNCNCNCNvNtNtCsbd9nAVVXtRC_7gigastt6server2ws10ws_handler0s_00Bb_
FNDA:0,_RNCNCNCNvNtNtCsbd9nAVVXtRC_7gigastt6server2ws19handle_binary_frame0s1_00Bb_
FNDA:0,_RNCNCNvNtNtCsbd9nAVVXtRC_7gigastt6server2ws10ws_handler00B9_
FNDA:0,_RNCNCNvNtNtCsbd9nAVVXtRC_7gigastt6server2ws10ws_handler0s_0B9_
FNDA:0,_RNCNCNvNtNtCsbd9nAVVXtRC_7gigastt6server2ws15flush_and_final00B9_
FNDA:0,_RNCNCNvNtNtCsbd9nAVVXtRC_7gigastt6server2ws19handle_binary_frame00B9_
FNDA:0,_RNCNCNvNtNtCsbd9nAVVXtRC_7gigastt6server2ws19handle_binary_frame0s0_0B9_
FNDA:0,_RNCNCNvNtNtCsbd9nAVVXtRC_7gigastt6server2ws19handle_binary_frame0s1_0B9_
FNDA:0,_RNCNCNvNtNtCsbd9nAVVXtRC_7gigastt6server2ws19handle_binary_frame0s_0B9_
FNDA:0,_RNCNvNtNtCsbd9nAVVXtRC_7gigastt6server2ws10ws_handler0B7_
FNDA:0,_RNCNvNtNtCsbd9nAVVXtRC_7gigastt6server2ws15flush_and_final0B7_
FNDA:0,_RNCNvNtNtCsbd9nAVVXtRC_7gigastt6server2ws15handle_ws_inner0B7_
FNDA:0,_RNCNvNtNtCsbd9nAVVXtRC_7gigastt6server2ws19handle_binary_frame0B7_
FNDA:0,_RNCNvNtNtCsbd9nAVVXtRC_7gigastt6server2ws19handle_stop_message0B7_
FNDA:0,_RNCNvNtNtCsbd9nAVVXtRC_7gigastt6server2ws19send_server_message0B7_
FNDA:0,_RNCNvNtNtCsbd9nAVVXtRC_7gigastt6server2ws24handle_configure_message0B7_
FNDA:0,_RNCNvNtNtCsbd9nAVVXtRC_7gigastt6server2ws9handle_ws0B7_
FNDA:1,_RNvNtNtNtCsk023ZLJrxN2_7gigastt6server2ws5testss_50test_catch_unwind_preserves_ownership_across_panic
FNDA:1,_RNCNvNtNtNtCsk023ZLJrxN2_7gigastt6server2ws5testss_50test_catch_unwind_preserves_ownership_across_panic0B9_
FNDA:0,_RNCNCNCNvNtNtCsk023ZLJrxN2_7gigastt6server2ws10ws_handler0s_00Bb_
FNDA:0,_RNCNCNCNvNtNtCsk023ZLJrxN2_7gigastt6server2ws19handle_binary_frame0s1_00Bb_
FNDA:0,_RNCNCNvNtNtCsk023ZLJrxN2_7gigastt6server2ws10ws_handler00B9_
FNDA:0,_RNCNCNvNtNtCsk023ZLJrxN2_7gigastt6server2ws10ws_handler0s_0B9_
FNDA:0,_RNCNCNvNtNtCsk023ZLJrxN2_7gigastt6server2ws15flush_and_final00B9_
FNDA:0,_RNCNCNvNtNtCsk023ZLJrxN2_7gigastt6server2ws19handle_binary_frame00B9_
FNDA:0,_RNCNCNvNtNtCsk023ZLJrxN2_7gigastt6server2ws19handle_binary_frame0s0_0B9_
FNDA:0,_RNCNCNvNtNtCsk023ZLJrxN2_7gigastt6server2ws19handle_binary_frame0s1_0B9_
FNDA:0,_RNCNCNvNtNtCsk023ZLJrxN2_7gigastt6server2ws19handle_binary_frame0s_0B9_
FNDA:0,_RNCNvNtNtCsk023ZLJrxN2_7gigastt6server2ws10ws_handler0B7_
FNDA:0,_RNCNvNtNtCsk023ZLJrxN2_7gigastt6server2ws15flush_and_final0B7_
FNDA:0,_RNCNvNtNtCsk023ZLJrxN2_7gigastt6server2ws15handle_ws_inner0B7_
FNDA:0,_RNCNvNtNtCsk023ZLJrxN2_7gigastt6server2ws19handle_binary_frame0B7_
FNDA:0,_RNCNvNtNtCsk023ZLJrxN2_7gigastt6server2ws19handle_stop_message0B7_
FNDA:0,_RNCNvNtNtCsk023ZLJrxN2_7gigastt6server2ws19send_server_message0B7_
FNDA:0,_RNCNvNtNtCsk023ZLJrxN2_7gigastt6server2ws24handle_configure_message0B7_
FNDA:0,_RNCNvNtNtCsk023ZLJrxN2_7gigastt6server2ws9handle_ws0B7_
FNDA:0,_RNvXNCNvNtNtCsk023ZLJrxN2_7gigastt6server2ws9handle_ws0NtB2_14WsMetricsGuardNtNtNtCsl8K0bEFm1U0_4core3ops4drop4Drop4drop
FNDA:0,_RNvNtNtCsk023ZLJrxN2_7gigastt6server2ws10ws_handler
FNDA:0,_RNvNtNtCsk023ZLJrxN2_7gigastt6server2ws15flush_and_final
FNDA:0,_RNvNtNtCsk023ZLJrxN2_7gigastt6server2ws15handle_ws_inner
FNDA:0,_RNvNtNtCsk023ZLJrxN2_7gigastt6server2ws19handle_binary_frame
FNDA:0,_RNvNtNtCsk023ZLJrxN2_7gigastt6server2ws19handle_stop_message
FNDA:0,_RNvNtNtCsk023ZLJrxN2_7gigastt6server2ws19send_server_message
FNDA:0,_RNvNtNtCsk023ZLJrxN2_7gigastt6server2ws24handle_configure_message
FNDA:0,_RNvNtNtCsk023ZLJrxN2_7gigastt6server2ws9handle_ws
FNF:28
FNH:2
DA:27,0
DA:28,0
DA:29,0
DA:30,0
DA:31,0
DA:32,0
DA:40,0
DA:43,0
DA:44,0
DA:45,0
DA:46,0
DA:47,0
DA:48,0
DA:49,0
DA:50,0
DA:51,0
DA:52,0
DA:54,0
DA:55,0
DA:56,0
DA:57,0
DA:58,0
DA:60,0
DA:61,0
DA:62,0
DA:63,0
DA:64,0
DA:66,0
DA:67,0
DA:68,0
DA:69,0
DA:70,0
DA:71,0
DA:72,0
DA:73,0
DA:74,0
DA:75,0
DA:76,0
DA:78,0
DA:79,0
DA:80,0
DA:81,0
DA:84,0
DA:85,0
DA:86,0
DA:87,0
DA:88,0
DA:90,0
DA:91,0
DA:95,0
DA:97,0
DA:98,0
DA:99,0
DA:100,0
DA:101,0
DA:102,0
DA:103,0
DA:104,0
DA:105,0
DA:106,0
DA:108,0
DA:109,0
DA:110,0
DA:111,0
DA:112,0
DA:113,0
DA:114,0
DA:115,0
DA:116,0
DA:117,0
DA:118,0
DA:119,0
DA:120,0
DA:121,0
DA:122,0
DA:125,0
DA:126,0
DA:127,0
DA:128,0
DA:129,0
DA:130,0
DA:131,0
DA:132,0
DA:133,0
DA:134,0
DA:135,0
DA:136,0
DA:137,0
DA:138,0
DA:143,0
DA:144,0
DA:145,0
DA:146,0
DA:147,0
DA:148,0
DA:149,0
DA:150,0
DA:152,0
DA:153,0
DA:154,0
DA:155,0
DA:156,0
DA:157,0
DA:158,0
DA:159,0
DA:160,0
DA:161,0
DA:162,0
DA:163,0
DA:164,0
DA:165,0
DA:169,0
DA:170,0
DA:171,0
DA:172,0
DA:173,0
DA:185,0
DA:186,0
DA:187,0
DA:188,0
DA:189,0
DA:190,0
DA:191,0
DA:192,0
DA:193,0
DA:194,0
DA:195,0
DA:196,0
DA:197,0
DA:198,0
DA:199,0
DA:200,0
DA:201,0
DA:202,0
DA:203,0
DA:204,0
DA:205,0
DA:206,0
DA:207,0
DA:208,0
DA:209,0
DA:210,0
DA:211,0
DA:212,0
DA:213,0
DA:214,0
DA:215,0
DA:216,0
DA:219,0
DA:220,0
DA:221,0
DA:225,0
DA:226,0
DA:227,0
DA:228,0
DA:230,0
DA:231,0
DA:233,0
DA:235,0
DA:236,0
DA:237,0
DA:239,0
DA:240,0
DA:241,0
DA:242,0
DA:243,0
DA:244,0
DA:245,0
DA:246,0
DA:247,0
DA:248,0
DA:249,0
DA:252,0
DA:253,0
DA:254,0
DA:255,0
DA:256,0
DA:257,0
DA:258,0
DA:260,0
DA:261,0
DA:262,0
DA:263,0
DA:267,0
DA:268,0
DA:269,0
DA:270,0
DA:271,0
DA:272,0
DA:273,0
DA:274,0
DA:276,0
DA:277,0
DA:278,0
DA:279,0
DA:280,0
DA:281,0
DA:282,0
DA:284,0
DA:286,0
DA:288,0
DA:290,0
DA:291,0
DA:292,0
DA:293,0
DA:294,0
DA:295,0
DA:296,0
DA:297,0
DA:298,0
DA:299,0
DA:300,0
DA:301,0
DA:302,0
DA:303,0
DA:305,0
DA:309,0
DA:312,0
DA:313,0
DA:314,0
DA:315,0
DA:316,0
DA:317,0
DA:318,0
DA:319,0
DA:320,0
DA:321,0
DA:322,0
DA:323,0
DA:325,0
DA:329,0
DA:330,0
DA:333,0
DA:339,0
DA:340,0
DA:341,0
DA:342,0
DA:343,0
DA:344,0
DA:345,0
DA:346,0
DA:347,0
DA:348,0
DA:349,0
DA:350,0
DA:351,0
DA:352,0
DA:353,0
DA:354,0
DA:355,0
DA:356,0
DA:357,0
DA:358,0
DA:359,0
DA:360,0
DA:361,0
DA:362,0
DA:363,0
DA:365,0
DA:366,0
DA:367,0
DA:368,0
DA:369,0
DA:370,0
DA:371,0
DA:372,0
DA:373,0
DA:374,0
DA:375,0
DA:376,0
DA:377,0
DA:378,0
DA:379,0
DA:380,0
DA:381,0
DA:382,0
DA:384,0
DA:385,0
DA:386,0
DA:387,0
DA:388,0
DA:389,0
DA:390,0
DA:391,0
DA:392,0
DA:393,0
DA:394,0
DA:396,0
DA:398,0
DA:399,0
DA:400,0
DA:401,0
DA:406,0
DA:407,0
DA:411,0
DA:412,0
DA:413,0
DA:414,0
DA:415,0
DA:416,0
DA:417,0
DA:418,0
DA:419,0
DA:421,0
DA:422,0
DA:423,0
DA:424,0
DA:426,0
DA:428,0
DA:429,0
DA:430,0
DA:436,0
DA:437,0
DA:438,0
DA:439,0
DA:440,0
DA:441,0
DA:442,0
DA:443,0
DA:444,0
DA:445,0
DA:446,0
DA:448,0
DA:449,0
DA:453,0
DA:454,0
DA:455,0
DA:456,0
DA:457,0
DA:458,0
DA:459,0
DA:460,0
DA:461,0
DA:462,0
DA:465,0
DA:469,0
DA:470,0
DA:471,0
DA:472,0
DA:473,0
DA:474,0
DA:475,0
DA:476,0
DA:477,0
DA:479,0
DA:480,0
DA:481,0
DA:482,0
DA:483,0
DA:487,0
DA:488,0
DA:490,0
DA:497,0
DA:498,0
DA:500,0
DA:503,0
DA:512,0
DA:513,0
DA:514,0
DA:515,0
DA:516,0
DA:517,0
DA:518,0
DA:519,0
DA:520,0
DA:521,0
DA:522,0
DA:523,0
DA:524,0
DA:529,0
DA:530,0
DA:531,0
DA:532,0
DA:533,0
DA:534,0
DA:535,0
DA:537,0
DA:538,0
DA:539,0
DA:540,0
DA:541,0
DA:542,0
DA:543,0
DA:544,0
DA:545,0
DA:546,0
DA:548,0
DA:554,0
DA:555,0
DA:558,0
DA:559,0
DA:560,0
DA:561,0
DA:562,0
DA:563,0
DA:564,0
DA:565,0
DA:568,0
DA:569,0
DA:574,0
DA:575,0
DA:576,0
DA:577,0
DA:578,0
DA:579,0
DA:580,0
DA:582,0
DA:583,0
DA:584,0
DA:585,0
DA:586,0
DA:587,0
DA:588,0
DA:589,0
DA:590,0
DA:593,0
DA:594,0
DA:595,0
DA:596,0
DA:597,0
DA:599,0
DA:603,0
DA:604,0
DA:605,0
DA:606,0
DA:607,0
DA:608,0
DA:609,0
DA:610,0
DA:611,0
DA:612,0
DA:613,0
DA:614,0
DA:615,0
DA:619,0
DA:620,0
DA:621,0
DA:622,0
DA:623,0
DA:624,0
DA:625,0
DA:626,0
DA:627,0
DA:628,0
DA:629,0
DA:630,0
DA:631,0
DA:632,0
DA:633,0
DA:634,0
DA:636,0
DA:638,0
DA:639,0
DA:640,0
DA:642,0
DA:643,0
DA:644,0
DA:645,0
DA:646,0
DA:647,0
DA:648,0
DA:649,0
DA:650,0
DA:651,0
DA:652,0
DA:653,0
DA:656,0
DA:658,0
DA:660,0
DA:662,0
DA:664,0
DA:667,0
DA:668,0
DA:671,0
DA:672,0
DA:673,0
DA:674,0
DA:680,0
DA:681,0
DA:682,0
DA:687,1
DA:695,1
DA:696,1
DA:698,1
DA:699,1
DA:700,1
DA:701,1
DA:704,1
DA:705,1
DA:706,1
DA:710,1
BRF:0
BRH:0
LF:509
LH:12
end_of_record